
mat-mul-add5x5.riscv:     file format elf64-littleriscv


Disassembly of section .text:

0000000080000000 <_start>:
    80000000:	4081                	c.li	ra,0
    80000002:	4101                	c.li	sp,0
    80000004:	4181                	c.li	gp,0
    80000006:	4201                	c.li	tp,0
    80000008:	4281                	c.li	t0,0
    8000000a:	4301                	c.li	t1,0
    8000000c:	4381                	c.li	t2,0
    8000000e:	4401                	c.li	s0,0
    80000010:	4481                	c.li	s1,0
    80000012:	4501                	c.li	a0,0
    80000014:	4581                	c.li	a1,0
    80000016:	4601                	c.li	a2,0
    80000018:	4681                	c.li	a3,0
    8000001a:	4701                	c.li	a4,0
    8000001c:	4781                	c.li	a5,0
    8000001e:	4801                	c.li	a6,0
    80000020:	4881                	c.li	a7,0
    80000022:	4901                	c.li	s2,0
    80000024:	4981                	c.li	s3,0
    80000026:	4a01                	c.li	s4,0
    80000028:	4a81                	c.li	s5,0
    8000002a:	4b01                	c.li	s6,0
    8000002c:	4b81                	c.li	s7,0
    8000002e:	4c01                	c.li	s8,0
    80000030:	4c81                	c.li	s9,0
    80000032:	4d01                	c.li	s10,0
    80000034:	4d81                	c.li	s11,0
    80000036:	4e01                	c.li	t3,0
    80000038:	4e81                	c.li	t4,0
    8000003a:	4f01                	c.li	t5,0
    8000003c:	4f81                	c.li	t6,0
    8000003e:	62f9                	c.lui	t0,0x1e
    80000040:	3002a073          	csrrs	zero,mstatus,t0
    80000044:	00000297          	auipc	t0,0x0
    80000048:	09028293          	addi	t0,t0,144 # 800000d4 <_start+0xd4>
    8000004c:	30529073          	csrrw	zero,mtvec,t0
    80000050:	00301073          	csrrw	zero,fcsr,zero
    80000054:	f0000053          	fmv.w.x	ft0,zero
    80000058:	f00000d3          	fmv.w.x	ft1,zero
    8000005c:	f0000153          	fmv.w.x	ft2,zero
    80000060:	f00001d3          	fmv.w.x	ft3,zero
    80000064:	f0000253          	fmv.w.x	ft4,zero
    80000068:	f00002d3          	fmv.w.x	ft5,zero
    8000006c:	f0000353          	fmv.w.x	ft6,zero
    80000070:	f00003d3          	fmv.w.x	ft7,zero
    80000074:	f0000453          	fmv.w.x	fs0,zero
    80000078:	f00004d3          	fmv.w.x	fs1,zero
    8000007c:	f0000553          	fmv.w.x	fa0,zero
    80000080:	f00005d3          	fmv.w.x	fa1,zero
    80000084:	f0000653          	fmv.w.x	fa2,zero
    80000088:	f00006d3          	fmv.w.x	fa3,zero
    8000008c:	f0000753          	fmv.w.x	fa4,zero
    80000090:	f00007d3          	fmv.w.x	fa5,zero
    80000094:	f0000853          	fmv.w.x	fa6,zero
    80000098:	f00008d3          	fmv.w.x	fa7,zero
    8000009c:	f0000953          	fmv.w.x	fs2,zero
    800000a0:	f00009d3          	fmv.w.x	fs3,zero
    800000a4:	f0000a53          	fmv.w.x	fs4,zero
    800000a8:	f0000ad3          	fmv.w.x	fs5,zero
    800000ac:	f0000b53          	fmv.w.x	fs6,zero
    800000b0:	f0000bd3          	fmv.w.x	fs7,zero
    800000b4:	f0000c53          	fmv.w.x	fs8,zero
    800000b8:	f0000cd3          	fmv.w.x	fs9,zero
    800000bc:	f0000d53          	fmv.w.x	fs10,zero
    800000c0:	f0000dd3          	fmv.w.x	fs11,zero
    800000c4:	f0000e53          	fmv.w.x	ft8,zero
    800000c8:	f0000ed3          	fmv.w.x	ft9,zero
    800000cc:	f0000f53          	fmv.w.x	ft10,zero
    800000d0:	f0000fd3          	fmv.w.x	ft11,zero
    800000d4:	00003197          	auipc	gp,0x3
    800000d8:	56c18193          	addi	gp,gp,1388 # 80003640 <__global_pointer$>
    800000dc:	f1402473          	csrrs	s0,mhartid,zero
    800000e0:	00f00293          	addi	t0,zero,15
    800000e4:	00024217          	auipc	tp,0x24
    800000e8:	f1c20213          	addi	tp,tp,-228 # 80024000 <__heap_end>
    800000ec:	005412b3          	sll	t0,s0,t0
    800000f0:	9216                	c.add	tp,t0
    800000f2:	62a1                	c.lui	t0,0x8
    800000f4:	00028293          	addi	t0,t0,0 # 8000 <__stack_size>
    800000f8:	00520133          	add	sp,tp,t0
    800000fc:	00000297          	auipc	t0,0x0
    80000100:	04428293          	addi	t0,t0,68 # 80000140 <trap_entry>
    80000104:	30529073          	csrrw	zero,mtvec,t0
    80000108:	670020ef          	jal	ra,80002778 <__init_tls>
    8000010c:	00000293          	addi	t0,zero,0
    80000110:	00540463          	beq	s0,t0,80000118 <_start+0x118>
    80000114:	0fa0006f          	jal	zero,8000020e <_start_secondary>
    80000118:	83018293          	addi	t0,gp,-2000 # 80002e70 <__malloc_free_list>
    8000011c:	9fc18313          	addi	t1,gp,-1540 # 8000303c <__bss_end>
    80000120:	0062f763          	bgeu	t0,t1,8000012e <_start+0x12e>
    80000124:	0002b023          	sd	zero,0(t0)
    80000128:	02a1                	c.addi	t0,8
    8000012a:	fe62ede3          	bltu	t0,t1,80000124 <_start+0x124>
    8000012e:	00002517          	auipc	a0,0x2
    80000132:	70c50513          	addi	a0,a0,1804 # 8000283a <__libc_fini_array>
    80000136:	6c4020ef          	jal	ra,800027fa <atexit>
    8000013a:	738020ef          	jal	ra,80002872 <__libc_init_array>
    8000013e:	a845                	c.j	800001ee <_start_main>

0000000080000140 <trap_entry>:
    80000140:	34011073          	csrrw	zero,mscratch,sp
    80000144:	7111                	c.addi16sp	sp,-256
    80000146:	e406                	c.sdsp	ra,8(sp)
    80000148:	340020f3          	csrrs	ra,mscratch,zero
    8000014c:	e806                	c.sdsp	ra,16(sp)
    8000014e:	ec0e                	c.sdsp	gp,24(sp)
    80000150:	f012                	c.sdsp	tp,32(sp)
    80000152:	f416                	c.sdsp	t0,40(sp)
    80000154:	f81a                	c.sdsp	t1,48(sp)
    80000156:	fc1e                	c.sdsp	t2,56(sp)
    80000158:	e0a2                	c.sdsp	s0,64(sp)
    8000015a:	e4a6                	c.sdsp	s1,72(sp)
    8000015c:	e8aa                	c.sdsp	a0,80(sp)
    8000015e:	ecae                	c.sdsp	a1,88(sp)
    80000160:	f0b2                	c.sdsp	a2,96(sp)
    80000162:	f4b6                	c.sdsp	a3,104(sp)
    80000164:	f8ba                	c.sdsp	a4,112(sp)
    80000166:	fcbe                	c.sdsp	a5,120(sp)
    80000168:	e142                	c.sdsp	a6,128(sp)
    8000016a:	e546                	c.sdsp	a7,136(sp)
    8000016c:	e94a                	c.sdsp	s2,144(sp)
    8000016e:	ed4e                	c.sdsp	s3,152(sp)
    80000170:	f152                	c.sdsp	s4,160(sp)
    80000172:	f556                	c.sdsp	s5,168(sp)
    80000174:	f95a                	c.sdsp	s6,176(sp)
    80000176:	fd5e                	c.sdsp	s7,184(sp)
    80000178:	e1e2                	c.sdsp	s8,192(sp)
    8000017a:	e5e6                	c.sdsp	s9,200(sp)
    8000017c:	e9ea                	c.sdsp	s10,208(sp)
    8000017e:	edee                	c.sdsp	s11,216(sp)
    80000180:	f1f2                	c.sdsp	t3,224(sp)
    80000182:	f5f6                	c.sdsp	t4,232(sp)
    80000184:	f9fa                	c.sdsp	t5,240(sp)
    80000186:	fdfe                	c.sdsp	t6,248(sp)
    80000188:	34102573          	csrrs	a0,mepc,zero
    8000018c:	342025f3          	csrrs	a1,mcause,zero
    80000190:	34302673          	csrrs	a2,mtval,zero
    80000194:	868a                	c.mv	a3,sp
    80000196:	6ae000ef          	jal	ra,80000844 <handle_trap>
    8000019a:	34151073          	csrrw	zero,mepc,a0
    8000019e:	000022b7          	lui	t0,0x2
    800001a2:	8002829b          	addiw	t0,t0,-2048
    800001a6:	3002a073          	csrrs	zero,mstatus,t0
    800001aa:	60a2                	c.ldsp	ra,8(sp)
    800001ac:	61e2                	c.ldsp	gp,24(sp)
    800001ae:	7202                	c.ldsp	tp,32(sp)
    800001b0:	72a2                	c.ldsp	t0,40(sp)
    800001b2:	7342                	c.ldsp	t1,48(sp)
    800001b4:	73e2                	c.ldsp	t2,56(sp)
    800001b6:	6406                	c.ldsp	s0,64(sp)
    800001b8:	64a6                	c.ldsp	s1,72(sp)
    800001ba:	6546                	c.ldsp	a0,80(sp)
    800001bc:	65e6                	c.ldsp	a1,88(sp)
    800001be:	7606                	c.ldsp	a2,96(sp)
    800001c0:	76a6                	c.ldsp	a3,104(sp)
    800001c2:	7746                	c.ldsp	a4,112(sp)
    800001c4:	77e6                	c.ldsp	a5,120(sp)
    800001c6:	680a                	c.ldsp	a6,128(sp)
    800001c8:	68aa                	c.ldsp	a7,136(sp)
    800001ca:	694a                	c.ldsp	s2,144(sp)
    800001cc:	69ea                	c.ldsp	s3,152(sp)
    800001ce:	7a0a                	c.ldsp	s4,160(sp)
    800001d0:	7aaa                	c.ldsp	s5,168(sp)
    800001d2:	7b4a                	c.ldsp	s6,176(sp)
    800001d4:	7bea                	c.ldsp	s7,184(sp)
    800001d6:	6c0e                	c.ldsp	s8,192(sp)
    800001d8:	6cae                	c.ldsp	s9,200(sp)
    800001da:	6d4e                	c.ldsp	s10,208(sp)
    800001dc:	6dee                	c.ldsp	s11,216(sp)
    800001de:	7e0e                	c.ldsp	t3,224(sp)
    800001e0:	7eae                	c.ldsp	t4,232(sp)
    800001e2:	7f4e                	c.ldsp	t5,240(sp)
    800001e4:	7fee                	c.ldsp	t6,248(sp)
    800001e6:	6142                	c.ldsp	sp,16(sp)
    800001e8:	30200073          	mret
	...

00000000800001ee <_start_main>:
    800001ee:	52fd                	c.li	t0,-1
    800001f0:	0110000f          	fence	w,w
    800001f4:	8c51ac23          	sw	t0,-1832(gp) # 80002f18 <__boot_sync>
    800001f8:	4505                	c.li	a0,1
    800001fa:	00003597          	auipc	a1,0x3
    800001fe:	a9e58593          	addi	a1,a1,-1378 # 80002c98 <argv>
    80000202:	8101b603          	ld	a2,-2032(gp) # 80002e50 <environ>
    80000206:	4b2000ef          	jal	ra,800006b8 <main>
    8000020a:	6040206f          	jal	zero,8000280e <exit>

000000008000020e <_start_secondary>:
    8000020e:	8d81a283          	lw	t0,-1832(gp) # 80002f18 <__boot_sync>
    80000212:	fe028ee3          	beq	t0,zero,8000020e <_start_secondary>
    80000216:	0220000f          	fence	r,r
    8000021a:	4505                	c.li	a0,1
    8000021c:	00003597          	auipc	a1,0x3
    80000220:	a7c58593          	addi	a1,a1,-1412 # 80002c98 <argv>
    80000224:	8101b603          	ld	a2,-2032(gp) # 80002e50 <environ>
    80000228:	580020ef          	jal	ra,800027a8 <__main>
    8000022c:	5e20206f          	jal	zero,8000280e <exit>

0000000080000230 <hpm_read>:
    80000230:	f6010113          	addi	sp,sp,-160
    80000234:	08813c23          	sd	s0,152(sp)
    80000238:	0a010413          	addi	s0,sp,160
    8000023c:	f6a43423          	sd	a0,-152(s0)
    80000240:	c00027f3          	csrrs	a5,cycle,zero
    80000244:	fef43423          	sd	a5,-24(s0)
    80000248:	fe843703          	ld	a4,-24(s0)
    8000024c:	f6843783          	ld	a5,-152(s0)
    80000250:	00e7b023          	sd	a4,0(a5)
    80000254:	c02027f3          	csrrs	a5,instret,zero
    80000258:	fef43023          	sd	a5,-32(s0)
    8000025c:	fe043703          	ld	a4,-32(s0)
    80000260:	f6843783          	ld	a5,-152(s0)
    80000264:	00e7b423          	sd	a4,8(a5)
    80000268:	c03027f3          	csrrs	a5,hpmcounter3,zero
    8000026c:	fcf43c23          	sd	a5,-40(s0)
    80000270:	fd843703          	ld	a4,-40(s0)
    80000274:	f6843783          	ld	a5,-152(s0)
    80000278:	00e7b823          	sd	a4,16(a5)
    8000027c:	c04027f3          	csrrs	a5,hpmcounter4,zero
    80000280:	fcf43823          	sd	a5,-48(s0)
    80000284:	fd043703          	ld	a4,-48(s0)
    80000288:	f6843783          	ld	a5,-152(s0)
    8000028c:	00e7bc23          	sd	a4,24(a5)
    80000290:	c05027f3          	csrrs	a5,hpmcounter5,zero
    80000294:	fcf43423          	sd	a5,-56(s0)
    80000298:	fc843703          	ld	a4,-56(s0)
    8000029c:	f6843783          	ld	a5,-152(s0)
    800002a0:	02e7b023          	sd	a4,32(a5)
    800002a4:	c06027f3          	csrrs	a5,hpmcounter6,zero
    800002a8:	fcf43023          	sd	a5,-64(s0)
    800002ac:	fc043703          	ld	a4,-64(s0)
    800002b0:	f6843783          	ld	a5,-152(s0)
    800002b4:	02e7b423          	sd	a4,40(a5)
    800002b8:	c10027f3          	csrrs	a5,hpmcounter16,zero
    800002bc:	faf43c23          	sd	a5,-72(s0)
    800002c0:	fb843703          	ld	a4,-72(s0)
    800002c4:	f6843783          	ld	a5,-152(s0)
    800002c8:	02e7b823          	sd	a4,48(a5)
    800002cc:	c07027f3          	csrrs	a5,hpmcounter7,zero
    800002d0:	faf43823          	sd	a5,-80(s0)
    800002d4:	fb043703          	ld	a4,-80(s0)
    800002d8:	f6843783          	ld	a5,-152(s0)
    800002dc:	02e7bc23          	sd	a4,56(a5)
    800002e0:	c08027f3          	csrrs	a5,hpmcounter8,zero
    800002e4:	faf43423          	sd	a5,-88(s0)
    800002e8:	fa843703          	ld	a4,-88(s0)
    800002ec:	f6843783          	ld	a5,-152(s0)
    800002f0:	04e7b023          	sd	a4,64(a5)
    800002f4:	c09027f3          	csrrs	a5,hpmcounter9,zero
    800002f8:	faf43023          	sd	a5,-96(s0)
    800002fc:	fa043703          	ld	a4,-96(s0)
    80000300:	f6843783          	ld	a5,-152(s0)
    80000304:	04e7b423          	sd	a4,72(a5)
    80000308:	c0a027f3          	csrrs	a5,hpmcounter10,zero
    8000030c:	f8f43c23          	sd	a5,-104(s0)
    80000310:	f9843703          	ld	a4,-104(s0)
    80000314:	f6843783          	ld	a5,-152(s0)
    80000318:	04e7b823          	sd	a4,80(a5)
    8000031c:	c0b027f3          	csrrs	a5,hpmcounter11,zero
    80000320:	f8f43823          	sd	a5,-112(s0)
    80000324:	f9043703          	ld	a4,-112(s0)
    80000328:	f6843783          	ld	a5,-152(s0)
    8000032c:	04e7bc23          	sd	a4,88(a5)
    80000330:	c0c027f3          	csrrs	a5,hpmcounter12,zero
    80000334:	f8f43423          	sd	a5,-120(s0)
    80000338:	f8843703          	ld	a4,-120(s0)
    8000033c:	f6843783          	ld	a5,-152(s0)
    80000340:	06e7b023          	sd	a4,96(a5)
    80000344:	c0d027f3          	csrrs	a5,hpmcounter13,zero
    80000348:	f8f43023          	sd	a5,-128(s0)
    8000034c:	f8043703          	ld	a4,-128(s0)
    80000350:	f6843783          	ld	a5,-152(s0)
    80000354:	06e7b423          	sd	a4,104(a5)
    80000358:	c0e027f3          	csrrs	a5,hpmcounter14,zero
    8000035c:	f6f43c23          	sd	a5,-136(s0)
    80000360:	f7843703          	ld	a4,-136(s0)
    80000364:	f6843783          	ld	a5,-152(s0)
    80000368:	06e7b823          	sd	a4,112(a5)
    8000036c:	c0f027f3          	csrrs	a5,hpmcounter15,zero
    80000370:	f6f43823          	sd	a5,-144(s0)
    80000374:	f7043703          	ld	a4,-144(s0)
    80000378:	f6843783          	ld	a5,-152(s0)
    8000037c:	06e7bc23          	sd	a4,120(a5)
    80000380:	00000013          	addi	zero,zero,0
    80000384:	09813403          	ld	s0,152(sp)
    80000388:	0a010113          	addi	sp,sp,160
    8000038c:	00008067          	jalr	zero,0(ra)

0000000080000390 <hpm_init>:
    80000390:	ff010113          	addi	sp,sp,-16
    80000394:	00113423          	sd	ra,8(sp)
    80000398:	00813023          	sd	s0,0(sp)
    8000039c:	01010413          	addi	s0,sp,16
    800003a0:	20000793          	addi	a5,zero,512
    800003a4:	32379073          	csrrw	zero,mhpmevent3,a5
    800003a8:	40000793          	addi	a5,zero,1024
    800003ac:	32479073          	csrrw	zero,mhpmevent4,a5
    800003b0:	10200793          	addi	a5,zero,258
    800003b4:	32579073          	csrrw	zero,mhpmevent5,a5
    800003b8:	20200793          	addi	a5,zero,514
    800003bc:	32679073          	csrrw	zero,mhpmevent6,a5
    800003c0:	000047b7          	lui	a5,0x4
    800003c4:	0027879b          	addiw	a5,a5,2
    800003c8:	33079073          	csrrw	zero,mhpmevent16,a5
    800003cc:	40200793          	addi	a5,zero,1026
    800003d0:	32779073          	csrrw	zero,mhpmevent7,a5
    800003d4:	000017b7          	lui	a5,0x1
    800003d8:	8027879b          	addiw	a5,a5,-2046
    800003dc:	32879073          	csrrw	zero,mhpmevent8,a5
    800003e0:	000017b7          	lui	a5,0x1
    800003e4:	0027879b          	addiw	a5,a5,2
    800003e8:	32979073          	csrrw	zero,mhpmevent9,a5
    800003ec:	000027b7          	lui	a5,0x2
    800003f0:	0027879b          	addiw	a5,a5,2
    800003f4:	32a79073          	csrrw	zero,mhpmevent10,a5
    800003f8:	000047b7          	lui	a5,0x4
    800003fc:	32b79073          	csrrw	zero,mhpmevent11,a5
    80000400:	000027b7          	lui	a5,0x2
    80000404:	0017879b          	addiw	a5,a5,1
    80000408:	32c79073          	csrrw	zero,mhpmevent12,a5
    8000040c:	10100793          	addi	a5,zero,257
    80000410:	32d79073          	csrrw	zero,mhpmevent13,a5
    80000414:	000017b7          	lui	a5,0x1
    80000418:	8017879b          	addiw	a5,a5,-2047
    8000041c:	32e79073          	csrrw	zero,mhpmevent14,a5
    80000420:	000017b7          	lui	a5,0x1
    80000424:	0017879b          	addiw	a5,a5,1
    80000428:	32f79073          	csrrw	zero,mhpmevent15,a5
    8000042c:	00003517          	auipc	a0,0x3
    80000430:	a6c50513          	addi	a0,a0,-1428 # 80002e98 <hpm_data0>
    80000434:	dfdff0ef          	jal	ra,80000230 <hpm_read>
    80000438:	00000013          	addi	zero,zero,0
    8000043c:	00813083          	ld	ra,8(sp)
    80000440:	00013403          	ld	s0,0(sp)
    80000444:	01010113          	addi	sp,sp,16
    80000448:	00008067          	jalr	zero,0(ra)

000000008000044c <hpm_print>:
    8000044c:	d6010113          	addi	sp,sp,-672
    80000450:	28113c23          	sd	ra,664(sp)
    80000454:	28813823          	sd	s0,656(sp)
    80000458:	2a010413          	addi	s0,sp,672
    8000045c:	f6040793          	addi	a5,s0,-160
    80000460:	00078513          	addi	a0,a5,0 # 1000 <__stack_align+0xff0>
    80000464:	dcdff0ef          	jal	ra,80000230 <hpm_read>
    80000468:	fe042223          	sw	zero,-28(s0)
    8000046c:	d6040793          	addi	a5,s0,-672
    80000470:	fef43423          	sd	a5,-24(s0)
    80000474:	0900006f          	jal	zero,80000504 <hpm_print+0xb8>
    80000478:	00003717          	auipc	a4,0x3
    8000047c:	89870713          	addi	a4,a4,-1896 # 80002d10 <label.3080>
    80000480:	fe442783          	lw	a5,-28(s0)
    80000484:	00379793          	slli	a5,a5,0x3
    80000488:	00f707b3          	add	a5,a4,a5
    8000048c:	0007b603          	ld	a2,0(a5)
    80000490:	fe442783          	lw	a5,-28(s0)
    80000494:	00379793          	slli	a5,a5,0x3
    80000498:	ff040713          	addi	a4,s0,-16
    8000049c:	00f707b3          	add	a5,a4,a5
    800004a0:	f707b703          	ld	a4,-144(a5)
    800004a4:	00003697          	auipc	a3,0x3
    800004a8:	9f468693          	addi	a3,a3,-1548 # 80002e98 <hpm_data0>
    800004ac:	fe442783          	lw	a5,-28(s0)
    800004b0:	00379793          	slli	a5,a5,0x3
    800004b4:	00f687b3          	add	a5,a3,a5
    800004b8:	0007b783          	ld	a5,0(a5)
    800004bc:	40f707b3          	sub	a5,a4,a5
    800004c0:	00078693          	addi	a3,a5,0
    800004c4:	00002597          	auipc	a1,0x2
    800004c8:	55c58593          	addi	a1,a1,1372 # 80002a20 <__tbss_end+0x4>
    800004cc:	fe843503          	ld	a0,-24(s0)
    800004d0:	5da000ef          	jal	ra,80000aaa <siprintf>
    800004d4:	00050793          	addi	a5,a0,0
    800004d8:	fef42023          	sw	a5,-32(s0)
    800004dc:	fe042783          	lw	a5,-32(s0)
    800004e0:	0007879b          	addiw	a5,a5,0
    800004e4:	0207ca63          	blt	a5,zero,80000518 <hpm_print+0xcc>
    800004e8:	fe042783          	lw	a5,-32(s0)
    800004ec:	fe843703          	ld	a4,-24(s0)
    800004f0:	00f707b3          	add	a5,a4,a5
    800004f4:	fef43423          	sd	a5,-24(s0)
    800004f8:	fe442783          	lw	a5,-28(s0)
    800004fc:	0017879b          	addiw	a5,a5,1
    80000500:	fef42223          	sw	a5,-28(s0)
    80000504:	fe442783          	lw	a5,-28(s0)
    80000508:	0007871b          	addiw	a4,a5,0
    8000050c:	00f00793          	addi	a5,zero,15
    80000510:	f6e7d4e3          	bge	a5,a4,80000478 <hpm_print+0x2c>
    80000514:	0080006f          	jal	zero,8000051c <hpm_print+0xd0>
    80000518:	00000013          	addi	zero,zero,0
    8000051c:	00003797          	auipc	a5,0x3
    80000520:	92478793          	addi	a5,a5,-1756 # 80002e40 <_impure_ptr>
    80000524:	0007b783          	ld	a5,0(a5)
    80000528:	0107b703          	ld	a4,16(a5)
    8000052c:	d6040793          	addi	a5,s0,-672
    80000530:	00070593          	addi	a1,a4,0
    80000534:	00078513          	addi	a0,a5,0
    80000538:	408000ef          	jal	ra,80000940 <fputs>
    8000053c:	00000013          	addi	zero,zero,0
    80000540:	29813083          	ld	ra,664(sp)
    80000544:	29013403          	ld	s0,656(sp)
    80000548:	2a010113          	addi	sp,sp,672
    8000054c:	00008067          	jalr	zero,0(ra)

0000000080000550 <mul_add>:
    80000550:	fc010113          	addi	sp,sp,-64
    80000554:	02813c23          	sd	s0,56(sp)
    80000558:	04010413          	addi	s0,sp,64
    8000055c:	fca43c23          	sd	a0,-40(s0)
    80000560:	fcb43823          	sd	a1,-48(s0)
    80000564:	fcc43423          	sd	a2,-56(s0)
    80000568:	fe042623          	sw	zero,-20(s0)
    8000056c:	1280006f          	jal	zero,80000694 <mul_add+0x144>
    80000570:	fe042423          	sw	zero,-24(s0)
    80000574:	1040006f          	jal	zero,80000678 <mul_add+0x128>
    80000578:	fe042223          	sw	zero,-28(s0)
    8000057c:	0e00006f          	jal	zero,8000065c <mul_add+0x10c>
    80000580:	fec42703          	lw	a4,-20(s0)
    80000584:	00070793          	addi	a5,a4,0
    80000588:	00279793          	slli	a5,a5,0x2
    8000058c:	00e787b3          	add	a5,a5,a4
    80000590:	00279793          	slli	a5,a5,0x2
    80000594:	00078713          	addi	a4,a5,0
    80000598:	fc843783          	ld	a5,-56(s0)
    8000059c:	00e78733          	add	a4,a5,a4
    800005a0:	fe842783          	lw	a5,-24(s0)
    800005a4:	00279793          	slli	a5,a5,0x2
    800005a8:	00f707b3          	add	a5,a4,a5
    800005ac:	0007a583          	lw	a1,0(a5)
    800005b0:	fec42703          	lw	a4,-20(s0)
    800005b4:	00070793          	addi	a5,a4,0
    800005b8:	00279793          	slli	a5,a5,0x2
    800005bc:	00e787b3          	add	a5,a5,a4
    800005c0:	00279793          	slli	a5,a5,0x2
    800005c4:	00078713          	addi	a4,a5,0
    800005c8:	fd843783          	ld	a5,-40(s0)
    800005cc:	00e78733          	add	a4,a5,a4
    800005d0:	fe442783          	lw	a5,-28(s0)
    800005d4:	00279793          	slli	a5,a5,0x2
    800005d8:	00f707b3          	add	a5,a4,a5
    800005dc:	0007a683          	lw	a3,0(a5)
    800005e0:	fe442703          	lw	a4,-28(s0)
    800005e4:	00070793          	addi	a5,a4,0
    800005e8:	00279793          	slli	a5,a5,0x2
    800005ec:	00e787b3          	add	a5,a5,a4
    800005f0:	00279793          	slli	a5,a5,0x2
    800005f4:	00078713          	addi	a4,a5,0
    800005f8:	fd043783          	ld	a5,-48(s0)
    800005fc:	00e78733          	add	a4,a5,a4
    80000600:	fe842783          	lw	a5,-24(s0)
    80000604:	00279793          	slli	a5,a5,0x2
    80000608:	00f707b3          	add	a5,a4,a5
    8000060c:	0007a783          	lw	a5,0(a5)
    80000610:	02f687bb          	mulw	a5,a3,a5
    80000614:	0007861b          	addiw	a2,a5,0
    80000618:	fec42703          	lw	a4,-20(s0)
    8000061c:	00070793          	addi	a5,a4,0
    80000620:	00279793          	slli	a5,a5,0x2
    80000624:	00e787b3          	add	a5,a5,a4
    80000628:	00279793          	slli	a5,a5,0x2
    8000062c:	00078713          	addi	a4,a5,0
    80000630:	fc843783          	ld	a5,-56(s0)
    80000634:	00e786b3          	add	a3,a5,a4
    80000638:	00c587bb          	addw	a5,a1,a2
    8000063c:	0007871b          	addiw	a4,a5,0
    80000640:	fe842783          	lw	a5,-24(s0)
    80000644:	00279793          	slli	a5,a5,0x2
    80000648:	00f687b3          	add	a5,a3,a5
    8000064c:	00e7a023          	sw	a4,0(a5)
    80000650:	fe442783          	lw	a5,-28(s0)
    80000654:	0017879b          	addiw	a5,a5,1
    80000658:	fef42223          	sw	a5,-28(s0)
    8000065c:	fe442783          	lw	a5,-28(s0)
    80000660:	0007871b          	addiw	a4,a5,0
    80000664:	00400793          	addi	a5,zero,4
    80000668:	f0e7dce3          	bge	a5,a4,80000580 <mul_add+0x30>
    8000066c:	fe842783          	lw	a5,-24(s0)
    80000670:	0017879b          	addiw	a5,a5,1
    80000674:	fef42423          	sw	a5,-24(s0)
    80000678:	fe842783          	lw	a5,-24(s0)
    8000067c:	0007871b          	addiw	a4,a5,0
    80000680:	00400793          	addi	a5,zero,4
    80000684:	eee7dae3          	bge	a5,a4,80000578 <mul_add+0x28>
    80000688:	fec42783          	lw	a5,-20(s0)
    8000068c:	0017879b          	addiw	a5,a5,1
    80000690:	fef42623          	sw	a5,-20(s0)
    80000694:	fec42783          	lw	a5,-20(s0)
    80000698:	0007871b          	addiw	a4,a5,0
    8000069c:	00400793          	addi	a5,zero,4
    800006a0:	ece7d8e3          	bge	a5,a4,80000570 <mul_add+0x20>
    800006a4:	00000013          	addi	zero,zero,0
    800006a8:	00000013          	addi	zero,zero,0
    800006ac:	03813403          	ld	s0,56(sp)
    800006b0:	04010113          	addi	sp,sp,64
    800006b4:	00008067          	jalr	zero,0(ra)

00000000800006b8 <main>:
    800006b8:	eb010113          	addi	sp,sp,-336
    800006bc:	14113423          	sd	ra,328(sp)
    800006c0:	14813023          	sd	s0,320(sp)
    800006c4:	15010413          	addi	s0,sp,336
    800006c8:	00100513          	addi	a0,zero,1
    800006cc:	2fc000ef          	jal	ra,800009c8 <srand>
    800006d0:	fe042623          	sw	zero,-20(s0)
    800006d4:	0d00006f          	jal	zero,800007a4 <main+0xec>
    800006d8:	fe042423          	sw	zero,-24(s0)
    800006dc:	0ac0006f          	jal	zero,80000788 <main+0xd0>
    800006e0:	336000ef          	jal	ra,80000a16 <rand>
    800006e4:	00050793          	addi	a5,a0,0
    800006e8:	00078613          	addi	a2,a5,0
    800006ec:	fe842683          	lw	a3,-24(s0)
    800006f0:	fec42703          	lw	a4,-20(s0)
    800006f4:	00070793          	addi	a5,a4,0
    800006f8:	00279793          	slli	a5,a5,0x2
    800006fc:	00e787b3          	add	a5,a5,a4
    80000700:	00d787b3          	add	a5,a5,a3
    80000704:	00279793          	slli	a5,a5,0x2
    80000708:	ff040713          	addi	a4,s0,-16
    8000070c:	00f707b3          	add	a5,a4,a5
    80000710:	f8c7a823          	sw	a2,-112(a5)
    80000714:	302000ef          	jal	ra,80000a16 <rand>
    80000718:	00050793          	addi	a5,a0,0
    8000071c:	00078613          	addi	a2,a5,0
    80000720:	fe842683          	lw	a3,-24(s0)
    80000724:	fec42703          	lw	a4,-20(s0)
    80000728:	00070793          	addi	a5,a4,0
    8000072c:	00279793          	slli	a5,a5,0x2
    80000730:	00e787b3          	add	a5,a5,a4
    80000734:	00d787b3          	add	a5,a5,a3
    80000738:	00279793          	slli	a5,a5,0x2
    8000073c:	ff040713          	addi	a4,s0,-16
    80000740:	00f707b3          	add	a5,a4,a5
    80000744:	f2c7a423          	sw	a2,-216(a5)
    80000748:	2ce000ef          	jal	ra,80000a16 <rand>
    8000074c:	00050793          	addi	a5,a0,0
    80000750:	00078613          	addi	a2,a5,0
    80000754:	fe842683          	lw	a3,-24(s0)
    80000758:	fec42703          	lw	a4,-20(s0)
    8000075c:	00070793          	addi	a5,a4,0
    80000760:	00279793          	slli	a5,a5,0x2
    80000764:	00e787b3          	add	a5,a5,a4
    80000768:	00d787b3          	add	a5,a5,a3
    8000076c:	00279793          	slli	a5,a5,0x2
    80000770:	ff040713          	addi	a4,s0,-16
    80000774:	00f707b3          	add	a5,a4,a5
    80000778:	ecc7a023          	sw	a2,-320(a5)
    8000077c:	fe842783          	lw	a5,-24(s0)
    80000780:	0017879b          	addiw	a5,a5,1
    80000784:	fef42423          	sw	a5,-24(s0)
    80000788:	fe842783          	lw	a5,-24(s0)
    8000078c:	0007871b          	addiw	a4,a5,0
    80000790:	00400793          	addi	a5,zero,4
    80000794:	f4e7d6e3          	bge	a5,a4,800006e0 <main+0x28>
    80000798:	fec42783          	lw	a5,-20(s0)
    8000079c:	0017879b          	addiw	a5,a5,1
    800007a0:	fef42623          	sw	a5,-20(s0)
    800007a4:	fec42783          	lw	a5,-20(s0)
    800007a8:	0007871b          	addiw	a4,a5,0
    800007ac:	00400793          	addi	a5,zero,4
    800007b0:	f2e7d4e3          	bge	a5,a4,800006d8 <main+0x20>
    800007b4:	fe042223          	sw	zero,-28(s0)
    800007b8:	0400006f          	jal	zero,800007f8 <main+0x140>
    800007bc:	fe442703          	lw	a4,-28(s0)
    800007c0:	00070793          	addi	a5,a4,0
    800007c4:	00279793          	slli	a5,a5,0x2
    800007c8:	00e787b3          	add	a5,a5,a4
    800007cc:	00279793          	slli	a5,a5,0x2
    800007d0:	ff040713          	addi	a4,s0,-16
    800007d4:	00f707b3          	add	a5,a4,a5
    800007d8:	f907a783          	lw	a5,-112(a5)
    800007dc:	00078593          	addi	a1,a5,0
    800007e0:	00002517          	auipc	a0,0x2
    800007e4:	25050513          	addi	a0,a0,592 # 80002a30 <__tbss_end+0x14>
    800007e8:	1a0000ef          	jal	ra,80000988 <iprintf>
    800007ec:	fe442783          	lw	a5,-28(s0)
    800007f0:	0017879b          	addiw	a5,a5,1
    800007f4:	fef42223          	sw	a5,-28(s0)
    800007f8:	fe442783          	lw	a5,-28(s0)
    800007fc:	0007871b          	addiw	a4,a5,0
    80000800:	00400793          	addi	a5,zero,4
    80000804:	fae7dce3          	bge	a5,a4,800007bc <main+0x104>
    80000808:	b89ff0ef          	jal	ra,80000390 <hpm_init>
    8000080c:	eb040693          	addi	a3,s0,-336
    80000810:	f1840713          	addi	a4,s0,-232
    80000814:	f8040793          	addi	a5,s0,-128
    80000818:	00068613          	addi	a2,a3,0
    8000081c:	00070593          	addi	a1,a4,0
    80000820:	00078513          	addi	a0,a5,0
    80000824:	d2dff0ef          	jal	ra,80000550 <mul_add>
    80000828:	c25ff0ef          	jal	ra,8000044c <hpm_print>
    8000082c:	00000793          	addi	a5,zero,0
    80000830:	00078513          	addi	a0,a5,0
    80000834:	14813083          	ld	ra,328(sp)
    80000838:	14013403          	ld	s0,320(sp)
    8000083c:	15010113          	addi	sp,sp,336
    80000840:	00008067          	jalr	zero,0(ra)

0000000080000844 <handle_trap>:
    80000844:	fd010113          	addi	sp,sp,-48
    80000848:	02113423          	sd	ra,40(sp)
    8000084c:	02813023          	sd	s0,32(sp)
    80000850:	03010413          	addi	s0,sp,48
    80000854:	fea43423          	sd	a0,-24(s0)
    80000858:	feb43023          	sd	a1,-32(s0)
    8000085c:	fcc43c23          	sd	a2,-40(s0)
    80000860:	fcd43823          	sd	a3,-48(s0)
    80000864:	fd843683          	ld	a3,-40(s0)
    80000868:	fe043603          	ld	a2,-32(s0)
    8000086c:	fe843583          	ld	a1,-24(s0)
    80000870:	00002517          	auipc	a0,0x2
    80000874:	2b050513          	addi	a0,a0,688 # 80002b20 <__tbss_end+0x104>
    80000878:	110000ef          	jal	ra,80000988 <iprintf>
    8000087c:	0ff00513          	addi	a0,zero,255
    80000880:	64f010ef          	jal	ra,800026ce <_exit>

0000000080000884 <_fputs_r>:
    80000884:	7179                	c.addi16sp	sp,-48
    80000886:	f022                	c.sdsp	s0,32(sp)
    80000888:	ec26                	c.sdsp	s1,24(sp)
    8000088a:	e84a                	c.sdsp	s2,16(sp)
    8000088c:	f406                	c.sdsp	ra,40(sp)
    8000088e:	e44e                	c.sdsp	s3,8(sp)
    80000890:	e052                	c.sdsp	s4,0(sp)
    80000892:	84aa                	c.mv	s1,a0
    80000894:	892e                	c.mv	s2,a1
    80000896:	8432                	c.mv	s0,a2
    80000898:	c509                	c.beqz	a0,800008a2 <_fputs_r+0x1e>
    8000089a:	591c                	c.lw	a5,48(a0)
    8000089c:	e399                	c.bnez	a5,800008a2 <_fputs_r+0x1e>
    8000089e:	6c6000ef          	jal	ra,80000f64 <__sinit>
    800008a2:	00002797          	auipc	a5,0x2
    800008a6:	2e678793          	addi	a5,a5,742 # 80002b88 <__sf_fake_stdin>
    800008aa:	02f41063          	bne	s0,a5,800008ca <_fputs_r+0x46>
    800008ae:	6480                	c.ld	s0,8(s1)
    800008b0:	01045783          	lhu	a5,16(s0)
    800008b4:	8ba1                	c.andi	a5,8
    800008b6:	cb95                	c.beqz	a5,800008ea <_fputs_r+0x66>
    800008b8:	6c1c                	c.ld	a5,24(s0)
    800008ba:	cb85                	c.beqz	a5,800008ea <_fputs_r+0x66>
    800008bc:	59fd                	c.li	s3,-1
    800008be:	4a29                	c.li	s4,10
    800008c0:	00094583          	lbu	a1,0(s2)
    800008c4:	e1a9                	c.bnez	a1,80000906 <_fputs_r+0x82>
    800008c6:	4501                	c.li	a0,0
    800008c8:	a03d                	c.j	800008f6 <_fputs_r+0x72>
    800008ca:	00002797          	auipc	a5,0x2
    800008ce:	2f678793          	addi	a5,a5,758 # 80002bc0 <__sf_fake_stdout>
    800008d2:	00f41463          	bne	s0,a5,800008da <_fputs_r+0x56>
    800008d6:	6880                	c.ld	s0,16(s1)
    800008d8:	bfe1                	c.j	800008b0 <_fputs_r+0x2c>
    800008da:	00002797          	auipc	a5,0x2
    800008de:	27678793          	addi	a5,a5,630 # 80002b50 <__sf_fake_stderr>
    800008e2:	fcf417e3          	bne	s0,a5,800008b0 <_fputs_r+0x2c>
    800008e6:	6c80                	c.ld	s0,24(s1)
    800008e8:	b7e1                	c.j	800008b0 <_fputs_r+0x2c>
    800008ea:	85a2                	c.mv	a1,s0
    800008ec:	8526                	c.mv	a0,s1
    800008ee:	2d8000ef          	jal	ra,80000bc6 <__swsetup_r>
    800008f2:	d569                	c.beqz	a0,800008bc <_fputs_r+0x38>
    800008f4:	557d                	c.li	a0,-1
    800008f6:	70a2                	c.ldsp	ra,40(sp)
    800008f8:	7402                	c.ldsp	s0,32(sp)
    800008fa:	64e2                	c.ldsp	s1,24(sp)
    800008fc:	6942                	c.ldsp	s2,16(sp)
    800008fe:	69a2                	c.ldsp	s3,8(sp)
    80000900:	6a02                	c.ldsp	s4,0(sp)
    80000902:	6145                	c.addi16sp	sp,48
    80000904:	8082                	c.jr	ra
    80000906:	445c                	c.lw	a5,12(s0)
    80000908:	0905                	c.addi	s2,1
    8000090a:	37fd                	c.addiw	a5,-1
    8000090c:	c45c                	c.sw	a5,12(s0)
    8000090e:	02079693          	slli	a3,a5,0x20
    80000912:	0007871b          	addiw	a4,a5,0
    80000916:	0006d763          	bge	a3,zero,80000924 <_fputs_r+0xa0>
    8000091a:	541c                	c.lw	a5,40(s0)
    8000091c:	00f74b63          	blt	a4,a5,80000932 <_fputs_r+0xae>
    80000920:	01458963          	beq	a1,s4,80000932 <_fputs_r+0xae>
    80000924:	601c                	c.ld	a5,0(s0)
    80000926:	00178713          	addi	a4,a5,1
    8000092a:	e018                	c.sd	a4,0(s0)
    8000092c:	00b78023          	sb	a1,0(a5)
    80000930:	bf41                	c.j	800008c0 <_fputs_r+0x3c>
    80000932:	8622                	c.mv	a2,s0
    80000934:	8526                	c.mv	a0,s1
    80000936:	1bc000ef          	jal	ra,80000af2 <__swbuf_r>
    8000093a:	f93513e3          	bne	a0,s3,800008c0 <_fputs_r+0x3c>
    8000093e:	bf5d                	c.j	800008f4 <_fputs_r+0x70>

0000000080000940 <fputs>:
    80000940:	862e                	c.mv	a2,a1
    80000942:	85aa                	c.mv	a1,a0
    80000944:	00002517          	auipc	a0,0x2
    80000948:	4fc53503          	ld	a0,1276(a0) # 80002e40 <_impure_ptr>
    8000094c:	bf25                	c.j	80000884 <_fputs_r>

000000008000094e <_iprintf_r>:
    8000094e:	711d                	c.addi16sp	sp,-96
    80000950:	f022                	c.sdsp	s0,32(sp)
    80000952:	ec26                	c.sdsp	s1,24(sp)
    80000954:	f406                	c.sdsp	ra,40(sp)
    80000956:	f832                	c.sdsp	a2,48(sp)
    80000958:	fc36                	c.sdsp	a3,56(sp)
    8000095a:	e0ba                	c.sdsp	a4,64(sp)
    8000095c:	e4be                	c.sdsp	a5,72(sp)
    8000095e:	e8c2                	c.sdsp	a6,80(sp)
    80000960:	ecc6                	c.sdsp	a7,88(sp)
    80000962:	842a                	c.mv	s0,a0
    80000964:	84ae                	c.mv	s1,a1
    80000966:	c509                	c.beqz	a0,80000970 <_iprintf_r+0x22>
    80000968:	591c                	c.lw	a5,48(a0)
    8000096a:	e399                	c.bnez	a5,80000970 <_iprintf_r+0x22>
    8000096c:	5f8000ef          	jal	ra,80000f64 <__sinit>
    80000970:	680c                	c.ld	a1,16(s0)
    80000972:	1814                	c.addi4spn	a3,sp,48
    80000974:	8626                	c.mv	a2,s1
    80000976:	8522                	c.mv	a0,s0
    80000978:	e436                	c.sdsp	a3,8(sp)
    8000097a:	3ca010ef          	jal	ra,80001d44 <_vfiprintf_r>
    8000097e:	70a2                	c.ldsp	ra,40(sp)
    80000980:	7402                	c.ldsp	s0,32(sp)
    80000982:	64e2                	c.ldsp	s1,24(sp)
    80000984:	6125                	c.addi16sp	sp,96
    80000986:	8082                	c.jr	ra

0000000080000988 <iprintf>:
    80000988:	7159                	c.addi16sp	sp,-112
    8000098a:	f022                	c.sdsp	s0,32(sp)
    8000098c:	f406                	c.sdsp	ra,40(sp)
    8000098e:	842a                	c.mv	s0,a0
    80000990:	fc2e                	c.sdsp	a1,56(sp)
    80000992:	e0b2                	c.sdsp	a2,64(sp)
    80000994:	e4b6                	c.sdsp	a3,72(sp)
    80000996:	e8ba                	c.sdsp	a4,80(sp)
    80000998:	ecbe                	c.sdsp	a5,88(sp)
    8000099a:	f0c2                	c.sdsp	a6,96(sp)
    8000099c:	f4c6                	c.sdsp	a7,104(sp)
    8000099e:	00002517          	auipc	a0,0x2
    800009a2:	4a253503          	ld	a0,1186(a0) # 80002e40 <_impure_ptr>
    800009a6:	c519                	c.beqz	a0,800009b4 <iprintf+0x2c>
    800009a8:	591c                	c.lw	a5,48(a0)
    800009aa:	e789                	c.bnez	a5,800009b4 <iprintf+0x2c>
    800009ac:	e42a                	c.sdsp	a0,8(sp)
    800009ae:	5b6000ef          	jal	ra,80000f64 <__sinit>
    800009b2:	6522                	c.ldsp	a0,8(sp)
    800009b4:	690c                	c.ld	a1,16(a0)
    800009b6:	1834                	c.addi4spn	a3,sp,56
    800009b8:	8622                	c.mv	a2,s0
    800009ba:	ec36                	c.sdsp	a3,24(sp)
    800009bc:	388010ef          	jal	ra,80001d44 <_vfiprintf_r>
    800009c0:	70a2                	c.ldsp	ra,40(sp)
    800009c2:	7402                	c.ldsp	s0,32(sp)
    800009c4:	6165                	c.addi16sp	sp,112
    800009c6:	8082                	c.jr	ra

00000000800009c8 <srand>:
    800009c8:	1101                	c.addi	sp,-32
    800009ca:	e426                	c.sdsp	s1,8(sp)
    800009cc:	00002497          	auipc	s1,0x2
    800009d0:	4744b483          	ld	s1,1140(s1) # 80002e40 <_impure_ptr>
    800009d4:	70bc                	c.ld	a5,96(s1)
    800009d6:	e822                	c.sdsp	s0,16(sp)
    800009d8:	ec06                	c.sdsp	ra,24(sp)
    800009da:	842a                	c.mv	s0,a0
    800009dc:	e785                	c.bnez	a5,80000a04 <srand+0x3c>
    800009de:	4561                	c.li	a0,24
    800009e0:	093000ef          	jal	ra,80001272 <malloc>
    800009e4:	f0a8                	c.sd	a0,96(s1)
    800009e6:	00002797          	auipc	a5,0x2
    800009ea:	47a7b783          	ld	a5,1146(a5) # 80002e60 <__atexit_dummy+0x8>
    800009ee:	e11c                	c.sd	a5,0(a0)
    800009f0:	0005e7b7          	lui	a5,0x5e
    800009f4:	eec78793          	addi	a5,a5,-276 # 5deec <__heap_size+0x3deec>
    800009f8:	c51c                	c.sw	a5,8(a0)
    800009fa:	47ad                	c.li	a5,11
    800009fc:	00f51623          	sh	a5,12(a0)
    80000a00:	4785                	c.li	a5,1
    80000a02:	e91c                	c.sd	a5,16(a0)
    80000a04:	70bc                	c.ld	a5,96(s1)
    80000a06:	1402                	c.slli	s0,0x20
    80000a08:	9001                	c.srli	s0,0x20
    80000a0a:	60e2                	c.ldsp	ra,24(sp)
    80000a0c:	eb80                	c.sd	s0,16(a5)
    80000a0e:	6442                	c.ldsp	s0,16(sp)
    80000a10:	64a2                	c.ldsp	s1,8(sp)
    80000a12:	6105                	c.addi16sp	sp,32
    80000a14:	8082                	c.jr	ra

0000000080000a16 <rand>:
    80000a16:	1141                	c.addi	sp,-16
    80000a18:	e022                	c.sdsp	s0,0(sp)
    80000a1a:	00002417          	auipc	s0,0x2
    80000a1e:	42643403          	ld	s0,1062(s0) # 80002e40 <_impure_ptr>
    80000a22:	703c                	c.ld	a5,96(s0)
    80000a24:	e406                	c.sdsp	ra,8(sp)
    80000a26:	e785                	c.bnez	a5,80000a4e <rand+0x38>
    80000a28:	4561                	c.li	a0,24
    80000a2a:	049000ef          	jal	ra,80001272 <malloc>
    80000a2e:	f028                	c.sd	a0,96(s0)
    80000a30:	00002797          	auipc	a5,0x2
    80000a34:	4307b783          	ld	a5,1072(a5) # 80002e60 <__atexit_dummy+0x8>
    80000a38:	e11c                	c.sd	a5,0(a0)
    80000a3a:	0005e7b7          	lui	a5,0x5e
    80000a3e:	eec78793          	addi	a5,a5,-276 # 5deec <__heap_size+0x3deec>
    80000a42:	c51c                	c.sw	a5,8(a0)
    80000a44:	47ad                	c.li	a5,11
    80000a46:	00f51623          	sh	a5,12(a0)
    80000a4a:	4785                	c.li	a5,1
    80000a4c:	e91c                	c.sd	a5,16(a0)
    80000a4e:	703c                	c.ld	a5,96(s0)
    80000a50:	00002717          	auipc	a4,0x2
    80000a54:	41873703          	ld	a4,1048(a4) # 80002e68 <__atexit_dummy+0x10>
    80000a58:	60a2                	c.ldsp	ra,8(sp)
    80000a5a:	6b88                	c.ld	a0,16(a5)
    80000a5c:	6402                	c.ldsp	s0,0(sp)
    80000a5e:	02e50533          	mul	a0,a0,a4
    80000a62:	0505                	c.addi	a0,1
    80000a64:	eb88                	c.sd	a0,16(a5)
    80000a66:	0506                	c.slli	a0,0x1
    80000a68:	9105                	c.srli	a0,0x21
    80000a6a:	0141                	c.addi	sp,16
    80000a6c:	8082                	c.jr	ra

0000000080000a6e <_siprintf_r>:
    80000a6e:	7111                	c.addi16sp	sp,-256
    80000a70:	f5be                	c.sdsp	a5,232(sp)
    80000a72:	800007b7          	lui	a5,0x80000
    80000a76:	fff7c793          	xori	a5,a5,-1
    80000a7a:	d83e                	c.swsp	a5,48(sp)
    80000a7c:	ce3e                	c.swsp	a5,28(sp)
    80000a7e:	77c1                	c.lui	a5,0xffff0
    80000a80:	edb6                	c.sdsp	a3,216(sp)
    80000a82:	e82e                	c.sdsp	a1,16(sp)
    80000a84:	f42e                	c.sdsp	a1,40(sp)
    80000a86:	20878793          	addi	a5,a5,520 # ffffffffffff0208 <__heap_end+0xffffffff7ffcc208>
    80000a8a:	09b4                	c.addi4spn	a3,sp,216
    80000a8c:	080c                	c.addi4spn	a1,sp,16
    80000a8e:	e586                	c.sdsp	ra,200(sp)
    80000a90:	d03e                	c.swsp	a5,32(sp)
    80000a92:	f1ba                	c.sdsp	a4,224(sp)
    80000a94:	f9c2                	c.sdsp	a6,240(sp)
    80000a96:	fdc6                	c.sdsp	a7,248(sp)
    80000a98:	e436                	c.sdsp	a3,8(sp)
    80000a9a:	3c7000ef          	jal	ra,80001660 <_svfiprintf_r>
    80000a9e:	67c2                	c.ldsp	a5,16(sp)
    80000aa0:	00078023          	sb	zero,0(a5)
    80000aa4:	60ae                	c.ldsp	ra,200(sp)
    80000aa6:	6111                	c.addi16sp	sp,256
    80000aa8:	8082                	c.jr	ra

0000000080000aaa <siprintf>:
    80000aaa:	7111                	c.addi16sp	sp,-256
    80000aac:	f5be                	c.sdsp	a5,232(sp)
    80000aae:	800007b7          	lui	a5,0x80000
    80000ab2:	fff7c793          	xori	a5,a5,-1
    80000ab6:	d83e                	c.swsp	a5,48(sp)
    80000ab8:	ce3e                	c.swsp	a5,28(sp)
    80000aba:	77c1                	c.lui	a5,0xffff0
    80000abc:	e9b2                	c.sdsp	a2,208(sp)
    80000abe:	edb6                	c.sdsp	a3,216(sp)
    80000ac0:	e82a                	c.sdsp	a0,16(sp)
    80000ac2:	f42a                	c.sdsp	a0,40(sp)
    80000ac4:	20878793          	addi	a5,a5,520 # ffffffffffff0208 <__heap_end+0xffffffff7ffcc208>
    80000ac8:	0994                	c.addi4spn	a3,sp,208
    80000aca:	862e                	c.mv	a2,a1
    80000acc:	00002517          	auipc	a0,0x2
    80000ad0:	37453503          	ld	a0,884(a0) # 80002e40 <_impure_ptr>
    80000ad4:	080c                	c.addi4spn	a1,sp,16
    80000ad6:	e586                	c.sdsp	ra,200(sp)
    80000ad8:	d03e                	c.swsp	a5,32(sp)
    80000ada:	f1ba                	c.sdsp	a4,224(sp)
    80000adc:	f9c2                	c.sdsp	a6,240(sp)
    80000ade:	fdc6                	c.sdsp	a7,248(sp)
    80000ae0:	e436                	c.sdsp	a3,8(sp)
    80000ae2:	37f000ef          	jal	ra,80001660 <_svfiprintf_r>
    80000ae6:	67c2                	c.ldsp	a5,16(sp)
    80000ae8:	00078023          	sb	zero,0(a5)
    80000aec:	60ae                	c.ldsp	ra,200(sp)
    80000aee:	6111                	c.addi16sp	sp,256
    80000af0:	8082                	c.jr	ra

0000000080000af2 <__swbuf_r>:
    80000af2:	7179                	c.addi16sp	sp,-48
    80000af4:	f022                	c.sdsp	s0,32(sp)
    80000af6:	ec26                	c.sdsp	s1,24(sp)
    80000af8:	e84a                	c.sdsp	s2,16(sp)
    80000afa:	f406                	c.sdsp	ra,40(sp)
    80000afc:	e44e                	c.sdsp	s3,8(sp)
    80000afe:	84aa                	c.mv	s1,a0
    80000b00:	892e                	c.mv	s2,a1
    80000b02:	8432                	c.mv	s0,a2
    80000b04:	c509                	c.beqz	a0,80000b0e <__swbuf_r+0x1c>
    80000b06:	591c                	c.lw	a5,48(a0)
    80000b08:	e399                	c.bnez	a5,80000b0e <__swbuf_r+0x1c>
    80000b0a:	45a000ef          	jal	ra,80000f64 <__sinit>
    80000b0e:	00002797          	auipc	a5,0x2
    80000b12:	07a78793          	addi	a5,a5,122 # 80002b88 <__sf_fake_stdin>
    80000b16:	06f41a63          	bne	s0,a5,80000b8a <__swbuf_r+0x98>
    80000b1a:	6480                	c.ld	s0,8(s1)
    80000b1c:	541c                	c.lw	a5,40(s0)
    80000b1e:	c45c                	c.sw	a5,12(s0)
    80000b20:	01045783          	lhu	a5,16(s0)
    80000b24:	8ba1                	c.andi	a5,8
    80000b26:	c3d1                	c.beqz	a5,80000baa <__swbuf_r+0xb8>
    80000b28:	6c1c                	c.ld	a5,24(s0)
    80000b2a:	c3c1                	c.beqz	a5,80000baa <__swbuf_r+0xb8>
    80000b2c:	6c1c                	c.ld	a5,24(s0)
    80000b2e:	6008                	c.ld	a0,0(s0)
    80000b30:	0ff97993          	andi	s3,s2,255
    80000b34:	894e                	c.mv	s2,s3
    80000b36:	9d1d                	c.subw	a0,a5
    80000b38:	501c                	c.lw	a5,32(s0)
    80000b3a:	00f54763          	blt	a0,a5,80000b48 <__swbuf_r+0x56>
    80000b3e:	85a2                	c.mv	a1,s0
    80000b40:	8526                	c.mv	a0,s1
    80000b42:	2d2000ef          	jal	ra,80000e14 <_fflush_r>
    80000b46:	e53d                	c.bnez	a0,80000bb4 <__swbuf_r+0xc2>
    80000b48:	445c                	c.lw	a5,12(s0)
    80000b4a:	2505                	c.addiw	a0,1
    80000b4c:	37fd                	c.addiw	a5,-1
    80000b4e:	c45c                	c.sw	a5,12(s0)
    80000b50:	601c                	c.ld	a5,0(s0)
    80000b52:	00178713          	addi	a4,a5,1
    80000b56:	e018                	c.sd	a4,0(s0)
    80000b58:	01378023          	sb	s3,0(a5)
    80000b5c:	501c                	c.lw	a5,32(s0)
    80000b5e:	00a78963          	beq	a5,a0,80000b70 <__swbuf_r+0x7e>
    80000b62:	01045783          	lhu	a5,16(s0)
    80000b66:	8b85                	c.andi	a5,1
    80000b68:	cb89                	c.beqz	a5,80000b7a <__swbuf_r+0x88>
    80000b6a:	47a9                	c.li	a5,10
    80000b6c:	00f91763          	bne	s2,a5,80000b7a <__swbuf_r+0x88>
    80000b70:	85a2                	c.mv	a1,s0
    80000b72:	8526                	c.mv	a0,s1
    80000b74:	2a0000ef          	jal	ra,80000e14 <_fflush_r>
    80000b78:	ed15                	c.bnez	a0,80000bb4 <__swbuf_r+0xc2>
    80000b7a:	70a2                	c.ldsp	ra,40(sp)
    80000b7c:	7402                	c.ldsp	s0,32(sp)
    80000b7e:	64e2                	c.ldsp	s1,24(sp)
    80000b80:	69a2                	c.ldsp	s3,8(sp)
    80000b82:	854a                	c.mv	a0,s2
    80000b84:	6942                	c.ldsp	s2,16(sp)
    80000b86:	6145                	c.addi16sp	sp,48
    80000b88:	8082                	c.jr	ra
    80000b8a:	00002797          	auipc	a5,0x2
    80000b8e:	03678793          	addi	a5,a5,54 # 80002bc0 <__sf_fake_stdout>
    80000b92:	00f41463          	bne	s0,a5,80000b9a <__swbuf_r+0xa8>
    80000b96:	6880                	c.ld	s0,16(s1)
    80000b98:	b751                	c.j	80000b1c <__swbuf_r+0x2a>
    80000b9a:	00002797          	auipc	a5,0x2
    80000b9e:	fb678793          	addi	a5,a5,-74 # 80002b50 <__sf_fake_stderr>
    80000ba2:	f6f41de3          	bne	s0,a5,80000b1c <__swbuf_r+0x2a>
    80000ba6:	6c80                	c.ld	s0,24(s1)
    80000ba8:	bf95                	c.j	80000b1c <__swbuf_r+0x2a>
    80000baa:	85a2                	c.mv	a1,s0
    80000bac:	8526                	c.mv	a0,s1
    80000bae:	018000ef          	jal	ra,80000bc6 <__swsetup_r>
    80000bb2:	dd2d                	c.beqz	a0,80000b2c <__swbuf_r+0x3a>
    80000bb4:	597d                	c.li	s2,-1
    80000bb6:	b7d1                	c.j	80000b7a <__swbuf_r+0x88>

0000000080000bb8 <__swbuf>:
    80000bb8:	862e                	c.mv	a2,a1
    80000bba:	85aa                	c.mv	a1,a0
    80000bbc:	00002517          	auipc	a0,0x2
    80000bc0:	28453503          	ld	a0,644(a0) # 80002e40 <_impure_ptr>
    80000bc4:	b73d                	c.j	80000af2 <__swbuf_r>

0000000080000bc6 <__swsetup_r>:
    80000bc6:	1101                	c.addi	sp,-32
    80000bc8:	e822                	c.sdsp	s0,16(sp)
    80000bca:	e426                	c.sdsp	s1,8(sp)
    80000bcc:	e04a                	c.sdsp	s2,0(sp)
    80000bce:	ec06                	c.sdsp	ra,24(sp)
    80000bd0:	00002497          	auipc	s1,0x2
    80000bd4:	2704b483          	ld	s1,624(s1) # 80002e40 <_impure_ptr>
    80000bd8:	892a                	c.mv	s2,a0
    80000bda:	842e                	c.mv	s0,a1
    80000bdc:	c491                	c.beqz	s1,80000be8 <__swsetup_r+0x22>
    80000bde:	589c                	c.lw	a5,48(s1)
    80000be0:	e781                	c.bnez	a5,80000be8 <__swsetup_r+0x22>
    80000be2:	8526                	c.mv	a0,s1
    80000be4:	380000ef          	jal	ra,80000f64 <__sinit>
    80000be8:	00002797          	auipc	a5,0x2
    80000bec:	fa078793          	addi	a5,a5,-96 # 80002b88 <__sf_fake_stdin>
    80000bf0:	02f41763          	bne	s0,a5,80000c1e <__swsetup_r+0x58>
    80000bf4:	6480                	c.ld	s0,8(s1)
    80000bf6:	01041783          	lh	a5,16(s0)
    80000bfa:	03079713          	slli	a4,a5,0x30
    80000bfe:	0087f693          	andi	a3,a5,8
    80000c02:	9341                	c.srli	a4,0x30
    80000c04:	eab5                	c.bnez	a3,80000c78 <__swsetup_r+0xb2>
    80000c06:	01077693          	andi	a3,a4,16
    80000c0a:	ea95                	c.bnez	a3,80000c3e <__swsetup_r+0x78>
    80000c0c:	4725                	c.li	a4,9
    80000c0e:	00e92023          	sw	a4,0(s2)
    80000c12:	0407e793          	ori	a5,a5,64
    80000c16:	00f41823          	sh	a5,16(s0)
    80000c1a:	557d                	c.li	a0,-1
    80000c1c:	a045                	c.j	80000cbc <__swsetup_r+0xf6>
    80000c1e:	00002797          	auipc	a5,0x2
    80000c22:	fa278793          	addi	a5,a5,-94 # 80002bc0 <__sf_fake_stdout>
    80000c26:	00f41463          	bne	s0,a5,80000c2e <__swsetup_r+0x68>
    80000c2a:	6880                	c.ld	s0,16(s1)
    80000c2c:	b7e9                	c.j	80000bf6 <__swsetup_r+0x30>
    80000c2e:	00002797          	auipc	a5,0x2
    80000c32:	f2278793          	addi	a5,a5,-222 # 80002b50 <__sf_fake_stderr>
    80000c36:	fcf410e3          	bne	s0,a5,80000bf6 <__swsetup_r+0x30>
    80000c3a:	6c80                	c.ld	s0,24(s1)
    80000c3c:	bf6d                	c.j	80000bf6 <__swsetup_r+0x30>
    80000c3e:	8b11                	c.andi	a4,4
    80000c40:	c715                	c.beqz	a4,80000c6c <__swsetup_r+0xa6>
    80000c42:	702c                	c.ld	a1,96(s0)
    80000c44:	c991                	c.beqz	a1,80000c58 <__swsetup_r+0x92>
    80000c46:	07c40793          	addi	a5,s0,124
    80000c4a:	00f58563          	beq	a1,a5,80000c54 <__swsetup_r+0x8e>
    80000c4e:	854a                	c.mv	a0,s2
    80000c50:	64a000ef          	jal	ra,8000129a <_free_r>
    80000c54:	06043023          	sd	zero,96(s0)
    80000c58:	01045783          	lhu	a5,16(s0)
    80000c5c:	00042423          	sw	zero,8(s0)
    80000c60:	fdb7f793          	andi	a5,a5,-37
    80000c64:	00f41823          	sh	a5,16(s0)
    80000c68:	6c1c                	c.ld	a5,24(s0)
    80000c6a:	e01c                	c.sd	a5,0(s0)
    80000c6c:	01045783          	lhu	a5,16(s0)
    80000c70:	0087e793          	ori	a5,a5,8
    80000c74:	00f41823          	sh	a5,16(s0)
    80000c78:	6c1c                	c.ld	a5,24(s0)
    80000c7a:	ef89                	c.bnez	a5,80000c94 <__swsetup_r+0xce>
    80000c7c:	01045783          	lhu	a5,16(s0)
    80000c80:	20000713          	addi	a4,zero,512
    80000c84:	2807f793          	andi	a5,a5,640
    80000c88:	00e78663          	beq	a5,a4,80000c94 <__swsetup_r+0xce>
    80000c8c:	85a2                	c.mv	a1,s0
    80000c8e:	854a                	c.mv	a0,s2
    80000c90:	540000ef          	jal	ra,800011d0 <__smakebuf_r>
    80000c94:	01041783          	lh	a5,16(s0)
    80000c98:	03079713          	slli	a4,a5,0x30
    80000c9c:	0017f693          	andi	a3,a5,1
    80000ca0:	9341                	c.srli	a4,0x30
    80000ca2:	c29d                	c.beqz	a3,80000cc8 <__swsetup_r+0x102>
    80000ca4:	5014                	c.lw	a3,32(s0)
    80000ca6:	00042623          	sw	zero,12(s0)
    80000caa:	40d006bb          	subw	a3,zero,a3
    80000cae:	d414                	c.sw	a3,40(s0)
    80000cb0:	6c14                	c.ld	a3,24(s0)
    80000cb2:	4501                	c.li	a0,0
    80000cb4:	e681                	c.bnez	a3,80000cbc <__swsetup_r+0xf6>
    80000cb6:	08077713          	andi	a4,a4,128
    80000cba:	ff21                	c.bnez	a4,80000c12 <__swsetup_r+0x4c>
    80000cbc:	60e2                	c.ldsp	ra,24(sp)
    80000cbe:	6442                	c.ldsp	s0,16(sp)
    80000cc0:	64a2                	c.ldsp	s1,8(sp)
    80000cc2:	6902                	c.ldsp	s2,0(sp)
    80000cc4:	6105                	c.addi16sp	sp,32
    80000cc6:	8082                	c.jr	ra
    80000cc8:	00277693          	andi	a3,a4,2
    80000ccc:	4601                	c.li	a2,0
    80000cce:	e291                	c.bnez	a3,80000cd2 <__swsetup_r+0x10c>
    80000cd0:	5010                	c.lw	a2,32(s0)
    80000cd2:	c450                	c.sw	a2,12(s0)
    80000cd4:	bff1                	c.j	80000cb0 <__swsetup_r+0xea>

0000000080000cd6 <__sflush_r>:
    80000cd6:	0105d783          	lhu	a5,16(a1)
    80000cda:	7179                	c.addi16sp	sp,-48
    80000cdc:	f022                	c.sdsp	s0,32(sp)
    80000cde:	ec26                	c.sdsp	s1,24(sp)
    80000ce0:	f406                	c.sdsp	ra,40(sp)
    80000ce2:	e84a                	c.sdsp	s2,16(sp)
    80000ce4:	e44e                	c.sdsp	s3,8(sp)
    80000ce6:	0087f713          	andi	a4,a5,8
    80000cea:	84aa                	c.mv	s1,a0
    80000cec:	842e                	c.mv	s0,a1
    80000cee:	ef79                	c.bnez	a4,80000dcc <__sflush_r+0xf6>
    80000cf0:	4598                	c.lw	a4,8(a1)
    80000cf2:	00e04d63          	blt	zero,a4,80000d0c <__sflush_r+0x36>
    80000cf6:	5db8                	c.lw	a4,120(a1)
    80000cf8:	00e04a63          	blt	zero,a4,80000d0c <__sflush_r+0x36>
    80000cfc:	4501                	c.li	a0,0
    80000cfe:	70a2                	c.ldsp	ra,40(sp)
    80000d00:	7402                	c.ldsp	s0,32(sp)
    80000d02:	64e2                	c.ldsp	s1,24(sp)
    80000d04:	6942                	c.ldsp	s2,16(sp)
    80000d06:	69a2                	c.ldsp	s3,8(sp)
    80000d08:	6145                	c.addi16sp	sp,48
    80000d0a:	8082                	c.jr	ra
    80000d0c:	6838                	c.ld	a4,80(s0)
    80000d0e:	d77d                	c.beqz	a4,80000cfc <__sflush_r+0x26>
    80000d10:	0004a903          	lw	s2,0(s1)
    80000d14:	03379693          	slli	a3,a5,0x33
    80000d18:	0004a023          	sw	zero,0(s1)
    80000d1c:	0606de63          	bge	a3,zero,80000d98 <__sflush_r+0xc2>
    80000d20:	6c50                	c.ld	a2,152(s0)
    80000d22:	01045783          	lhu	a5,16(s0)
    80000d26:	8b91                	c.andi	a5,4
    80000d28:	c799                	c.beqz	a5,80000d36 <__sflush_r+0x60>
    80000d2a:	441c                	c.lw	a5,8(s0)
    80000d2c:	8e1d                	c.sub	a2,a5
    80000d2e:	703c                	c.ld	a5,96(s0)
    80000d30:	c399                	c.beqz	a5,80000d36 <__sflush_r+0x60>
    80000d32:	5c3c                	c.lw	a5,120(s0)
    80000d34:	8e1d                	c.sub	a2,a5
    80000d36:	683c                	c.ld	a5,80(s0)
    80000d38:	7c0c                	c.ld	a1,56(s0)
    80000d3a:	4681                	c.li	a3,0
    80000d3c:	8526                	c.mv	a0,s1
    80000d3e:	9782                	c.jalr	a5
    80000d40:	57fd                	c.li	a5,-1
    80000d42:	01045703          	lhu	a4,16(s0)
    80000d46:	00f51d63          	bne	a0,a5,80000d60 <__sflush_r+0x8a>
    80000d4a:	4094                	c.lw	a3,0(s1)
    80000d4c:	47f5                	c.li	a5,29
    80000d4e:	06d7e963          	bltu	a5,a3,80000dc0 <__sflush_r+0xea>
    80000d52:	204007b7          	lui	a5,0x20400
    80000d56:	0785                	c.addi	a5,1
    80000d58:	00d7d7b3          	srl	a5,a5,a3
    80000d5c:	8b85                	c.andi	a5,1
    80000d5e:	c3ad                	c.beqz	a5,80000dc0 <__sflush_r+0xea>
    80000d60:	6c1c                	c.ld	a5,24(s0)
    80000d62:	00042423          	sw	zero,8(s0)
    80000d66:	e01c                	c.sd	a5,0(s0)
    80000d68:	03371793          	slli	a5,a4,0x33
    80000d6c:	0007d863          	bge	a5,zero,80000d7c <__sflush_r+0xa6>
    80000d70:	57fd                	c.li	a5,-1
    80000d72:	00f51463          	bne	a0,a5,80000d7a <__sflush_r+0xa4>
    80000d76:	409c                	c.lw	a5,0(s1)
    80000d78:	e391                	c.bnez	a5,80000d7c <__sflush_r+0xa6>
    80000d7a:	ec48                	c.sd	a0,152(s0)
    80000d7c:	702c                	c.ld	a1,96(s0)
    80000d7e:	0124a023          	sw	s2,0(s1)
    80000d82:	ddad                	c.beqz	a1,80000cfc <__sflush_r+0x26>
    80000d84:	07c40793          	addi	a5,s0,124
    80000d88:	00f58563          	beq	a1,a5,80000d92 <__sflush_r+0xbc>
    80000d8c:	8526                	c.mv	a0,s1
    80000d8e:	50c000ef          	jal	ra,8000129a <_free_r>
    80000d92:	06043023          	sd	zero,96(s0)
    80000d96:	b79d                	c.j	80000cfc <__sflush_r+0x26>
    80000d98:	7c0c                	c.ld	a1,56(s0)
    80000d9a:	4601                	c.li	a2,0
    80000d9c:	4685                	c.li	a3,1
    80000d9e:	8526                	c.mv	a0,s1
    80000da0:	9702                	c.jalr	a4
    80000da2:	57fd                	c.li	a5,-1
    80000da4:	862a                	c.mv	a2,a0
    80000da6:	f6f51ee3          	bne	a0,a5,80000d22 <__sflush_r+0x4c>
    80000daa:	409c                	c.lw	a5,0(s1)
    80000dac:	dbbd                	c.beqz	a5,80000d22 <__sflush_r+0x4c>
    80000dae:	4775                	c.li	a4,29
    80000db0:	00e78563          	beq	a5,a4,80000dba <__sflush_r+0xe4>
    80000db4:	4759                	c.li	a4,22
    80000db6:	04e79463          	bne	a5,a4,80000dfe <__sflush_r+0x128>
    80000dba:	0124a023          	sw	s2,0(s1)
    80000dbe:	bf3d                	c.j	80000cfc <__sflush_r+0x26>
    80000dc0:	04076713          	ori	a4,a4,64
    80000dc4:	00e41823          	sh	a4,16(s0)
    80000dc8:	557d                	c.li	a0,-1
    80000dca:	bf15                	c.j	80000cfe <__sflush_r+0x28>
    80000dcc:	0185b983          	ld	s3,24(a1)
    80000dd0:	f20986e3          	beq	s3,zero,80000cfc <__sflush_r+0x26>
    80000dd4:	0005b903          	ld	s2,0(a1)
    80000dd8:	8b8d                	c.andi	a5,3
    80000dda:	0135b023          	sd	s3,0(a1)
    80000dde:	4139093b          	subw	s2,s2,s3
    80000de2:	4701                	c.li	a4,0
    80000de4:	e391                	c.bnez	a5,80000de8 <__sflush_r+0x112>
    80000de6:	5198                	c.lw	a4,32(a1)
    80000de8:	c458                	c.sw	a4,12(s0)
    80000dea:	f12059e3          	bge	zero,s2,80000cfc <__sflush_r+0x26>
    80000dee:	643c                	c.ld	a5,72(s0)
    80000df0:	7c0c                	c.ld	a1,56(s0)
    80000df2:	86ca                	c.mv	a3,s2
    80000df4:	864e                	c.mv	a2,s3
    80000df6:	8526                	c.mv	a0,s1
    80000df8:	9782                	c.jalr	a5
    80000dfa:	00a04963          	blt	zero,a0,80000e0c <__sflush_r+0x136>
    80000dfe:	01045783          	lhu	a5,16(s0)
    80000e02:	0407e793          	ori	a5,a5,64
    80000e06:	00f41823          	sh	a5,16(s0)
    80000e0a:	bf7d                	c.j	80000dc8 <__sflush_r+0xf2>
    80000e0c:	99aa                	c.add	s3,a0
    80000e0e:	40a9093b          	subw	s2,s2,a0
    80000e12:	bfe1                	c.j	80000dea <__sflush_r+0x114>

0000000080000e14 <_fflush_r>:
    80000e14:	6d9c                	c.ld	a5,24(a1)
    80000e16:	c3a5                	c.beqz	a5,80000e76 <_fflush_r+0x62>
    80000e18:	1101                	c.addi	sp,-32
    80000e1a:	e822                	c.sdsp	s0,16(sp)
    80000e1c:	ec06                	c.sdsp	ra,24(sp)
    80000e1e:	842a                	c.mv	s0,a0
    80000e20:	c519                	c.beqz	a0,80000e2e <_fflush_r+0x1a>
    80000e22:	591c                	c.lw	a5,48(a0)
    80000e24:	e789                	c.bnez	a5,80000e2e <_fflush_r+0x1a>
    80000e26:	e42e                	c.sdsp	a1,8(sp)
    80000e28:	13c000ef          	jal	ra,80000f64 <__sinit>
    80000e2c:	65a2                	c.ldsp	a1,8(sp)
    80000e2e:	00002797          	auipc	a5,0x2
    80000e32:	d5a78793          	addi	a5,a5,-678 # 80002b88 <__sf_fake_stdin>
    80000e36:	00f59b63          	bne	a1,a5,80000e4c <_fflush_r+0x38>
    80000e3a:	640c                	c.ld	a1,8(s0)
    80000e3c:	01059783          	lh	a5,16(a1)
    80000e40:	c795                	c.beqz	a5,80000e6c <_fflush_r+0x58>
    80000e42:	8522                	c.mv	a0,s0
    80000e44:	6442                	c.ldsp	s0,16(sp)
    80000e46:	60e2                	c.ldsp	ra,24(sp)
    80000e48:	6105                	c.addi16sp	sp,32
    80000e4a:	b571                	c.j	80000cd6 <__sflush_r>
    80000e4c:	00002797          	auipc	a5,0x2
    80000e50:	d7478793          	addi	a5,a5,-652 # 80002bc0 <__sf_fake_stdout>
    80000e54:	00f59463          	bne	a1,a5,80000e5c <_fflush_r+0x48>
    80000e58:	680c                	c.ld	a1,16(s0)
    80000e5a:	b7cd                	c.j	80000e3c <_fflush_r+0x28>
    80000e5c:	00002797          	auipc	a5,0x2
    80000e60:	cf478793          	addi	a5,a5,-780 # 80002b50 <__sf_fake_stderr>
    80000e64:	fcf59ce3          	bne	a1,a5,80000e3c <_fflush_r+0x28>
    80000e68:	6c0c                	c.ld	a1,24(s0)
    80000e6a:	bfc9                	c.j	80000e3c <_fflush_r+0x28>
    80000e6c:	60e2                	c.ldsp	ra,24(sp)
    80000e6e:	6442                	c.ldsp	s0,16(sp)
    80000e70:	4501                	c.li	a0,0
    80000e72:	6105                	c.addi16sp	sp,32
    80000e74:	8082                	c.jr	ra
    80000e76:	4501                	c.li	a0,0
    80000e78:	8082                	c.jr	ra

0000000080000e7a <fflush>:
    80000e7a:	85aa                	c.mv	a1,a0
    80000e7c:	e911                	c.bnez	a0,80000e90 <fflush+0x16>
    80000e7e:	00000597          	auipc	a1,0x0
    80000e82:	f9658593          	addi	a1,a1,-106 # 80000e14 <_fflush_r>
    80000e86:	00002517          	auipc	a0,0x2
    80000e8a:	e3253503          	ld	a0,-462(a0) # 80002cb8 <_global_impure_ptr>
    80000e8e:	acad                	c.j	80001108 <_fwalk_reent>
    80000e90:	00002517          	auipc	a0,0x2
    80000e94:	fb053503          	ld	a0,-80(a0) # 80002e40 <_impure_ptr>
    80000e98:	bfb5                	c.j	80000e14 <_fflush_r>

0000000080000e9a <__fp_lock>:
    80000e9a:	4501                	c.li	a0,0
    80000e9c:	8082                	c.jr	ra

0000000080000e9e <std>:
    80000e9e:	1141                	c.addi	sp,-16
    80000ea0:	e022                	c.sdsp	s0,0(sp)
    80000ea2:	e406                	c.sdsp	ra,8(sp)
    80000ea4:	842a                	c.mv	s0,a0
    80000ea6:	00b51823          	sh	a1,16(a0)
    80000eaa:	00c51923          	sh	a2,18(a0)
    80000eae:	00053023          	sd	zero,0(a0)
    80000eb2:	00053423          	sd	zero,8(a0)
    80000eb6:	0a052623          	sw	zero,172(a0)
    80000eba:	00053c23          	sd	zero,24(a0)
    80000ebe:	02052023          	sw	zero,32(a0)
    80000ec2:	02052423          	sw	zero,40(a0)
    80000ec6:	4621                	c.li	a2,8
    80000ec8:	4581                	c.li	a1,0
    80000eca:	0a450513          	addi	a0,a0,164
    80000ece:	3bc000ef          	jal	ra,8000128a <memset>
    80000ed2:	00001797          	auipc	a5,0x1
    80000ed6:	15c78793          	addi	a5,a5,348 # 8000202e <__sread>
    80000eda:	e03c                	c.sd	a5,64(s0)
    80000edc:	00001797          	auipc	a5,0x1
    80000ee0:	18878793          	addi	a5,a5,392 # 80002064 <__swrite>
    80000ee4:	e43c                	c.sd	a5,72(s0)
    80000ee6:	00001797          	auipc	a5,0x1
    80000eea:	1ce78793          	addi	a5,a5,462 # 800020b4 <__sseek>
    80000eee:	e83c                	c.sd	a5,80(s0)
    80000ef0:	00001797          	auipc	a5,0x1
    80000ef4:	1fc78793          	addi	a5,a5,508 # 800020ec <__sclose>
    80000ef8:	60a2                	c.ldsp	ra,8(sp)
    80000efa:	fc00                	c.sd	s0,56(s0)
    80000efc:	ec3c                	c.sd	a5,88(s0)
    80000efe:	6402                	c.ldsp	s0,0(sp)
    80000f00:	0141                	c.addi	sp,16
    80000f02:	8082                	c.jr	ra

0000000080000f04 <_cleanup_r>:
    80000f04:	00000597          	auipc	a1,0x0
    80000f08:	f1058593          	addi	a1,a1,-240 # 80000e14 <_fflush_r>
    80000f0c:	aaf5                	c.j	80001108 <_fwalk_reent>

0000000080000f0e <__fp_unlock>:
    80000f0e:	4501                	c.li	a0,0
    80000f10:	8082                	c.jr	ra

0000000080000f12 <__sfmoreglue>:
    80000f12:	1101                	c.addi	sp,-32
    80000f14:	e426                	c.sdsp	s1,8(sp)
    80000f16:	0b000613          	addi	a2,zero,176
    80000f1a:	fff5849b          	addiw	s1,a1,-1
    80000f1e:	02c484b3          	mul	s1,s1,a2
    80000f22:	e04a                	c.sdsp	s2,0(sp)
    80000f24:	892e                	c.mv	s2,a1
    80000f26:	e822                	c.sdsp	s0,16(sp)
    80000f28:	ec06                	c.sdsp	ra,24(sp)
    80000f2a:	0c848593          	addi	a1,s1,200
    80000f2e:	412000ef          	jal	ra,80001340 <_malloc_r>
    80000f32:	842a                	c.mv	s0,a0
    80000f34:	cd01                	c.beqz	a0,80000f4c <__sfmoreglue+0x3a>
    80000f36:	00053023          	sd	zero,0(a0)
    80000f3a:	01252423          	sw	s2,8(a0)
    80000f3e:	0561                	c.addi	a0,24
    80000f40:	e808                	c.sd	a0,16(s0)
    80000f42:	0b048613          	addi	a2,s1,176
    80000f46:	4581                	c.li	a1,0
    80000f48:	342000ef          	jal	ra,8000128a <memset>
    80000f4c:	60e2                	c.ldsp	ra,24(sp)
    80000f4e:	8522                	c.mv	a0,s0
    80000f50:	6442                	c.ldsp	s0,16(sp)
    80000f52:	64a2                	c.ldsp	s1,8(sp)
    80000f54:	6902                	c.ldsp	s2,0(sp)
    80000f56:	6105                	c.addi16sp	sp,32
    80000f58:	8082                	c.jr	ra

0000000080000f5a <_cleanup>:
    80000f5a:	00002517          	auipc	a0,0x2
    80000f5e:	d5e53503          	ld	a0,-674(a0) # 80002cb8 <_global_impure_ptr>
    80000f62:	b74d                	c.j	80000f04 <_cleanup_r>

0000000080000f64 <__sinit>:
    80000f64:	591c                	c.lw	a5,48(a0)
    80000f66:	ebad                	c.bnez	a5,80000fd8 <__sinit+0x74>
    80000f68:	1141                	c.addi	sp,-16
    80000f6a:	e022                	c.sdsp	s0,0(sp)
    80000f6c:	e406                	c.sdsp	ra,8(sp)
    80000f6e:	00000797          	auipc	a5,0x0
    80000f72:	f9678793          	addi	a5,a5,-106 # 80000f04 <_cleanup_r>
    80000f76:	e53c                	c.sd	a5,72(a0)
    80000f78:	08053023          	sd	zero,128(a0)
    80000f7c:	08052423          	sw	zero,136(a0)
    80000f80:	08053823          	sd	zero,144(a0)
    80000f84:	00002797          	auipc	a5,0x2
    80000f88:	d347b783          	ld	a5,-716(a5) # 80002cb8 <_global_impure_ptr>
    80000f8c:	842a                	c.mv	s0,a0
    80000f8e:	00f51463          	bne	a0,a5,80000f96 <__sinit+0x32>
    80000f92:	4785                	c.li	a5,1
    80000f94:	d91c                	c.sw	a5,48(a0)
    80000f96:	8522                	c.mv	a0,s0
    80000f98:	042000ef          	jal	ra,80000fda <__sfp>
    80000f9c:	e408                	c.sd	a0,8(s0)
    80000f9e:	8522                	c.mv	a0,s0
    80000fa0:	03a000ef          	jal	ra,80000fda <__sfp>
    80000fa4:	e808                	c.sd	a0,16(s0)
    80000fa6:	8522                	c.mv	a0,s0
    80000fa8:	032000ef          	jal	ra,80000fda <__sfp>
    80000fac:	ec08                	c.sd	a0,24(s0)
    80000fae:	6408                	c.ld	a0,8(s0)
    80000fb0:	4601                	c.li	a2,0
    80000fb2:	4591                	c.li	a1,4
    80000fb4:	eebff0ef          	jal	ra,80000e9e <std>
    80000fb8:	6808                	c.ld	a0,16(s0)
    80000fba:	4605                	c.li	a2,1
    80000fbc:	45a5                	c.li	a1,9
    80000fbe:	ee1ff0ef          	jal	ra,80000e9e <std>
    80000fc2:	6c08                	c.ld	a0,24(s0)
    80000fc4:	4609                	c.li	a2,2
    80000fc6:	45c9                	c.li	a1,18
    80000fc8:	ed7ff0ef          	jal	ra,80000e9e <std>
    80000fcc:	4785                	c.li	a5,1
    80000fce:	60a2                	c.ldsp	ra,8(sp)
    80000fd0:	d81c                	c.sw	a5,48(s0)
    80000fd2:	6402                	c.ldsp	s0,0(sp)
    80000fd4:	0141                	c.addi	sp,16
    80000fd6:	8082                	c.jr	ra
    80000fd8:	8082                	c.jr	ra

0000000080000fda <__sfp>:
    80000fda:	1101                	c.addi	sp,-32
    80000fdc:	e426                	c.sdsp	s1,8(sp)
    80000fde:	00002497          	auipc	s1,0x2
    80000fe2:	cda4b483          	ld	s1,-806(s1) # 80002cb8 <_global_impure_ptr>
    80000fe6:	589c                	c.lw	a5,48(s1)
    80000fe8:	e04a                	c.sdsp	s2,0(sp)
    80000fea:	ec06                	c.sdsp	ra,24(sp)
    80000fec:	e822                	c.sdsp	s0,16(sp)
    80000fee:	892a                	c.mv	s2,a0
    80000ff0:	e781                	c.bnez	a5,80000ff8 <__sfp+0x1e>
    80000ff2:	8526                	c.mv	a0,s1
    80000ff4:	f71ff0ef          	jal	ra,80000f64 <__sinit>
    80000ff8:	08048493          	addi	s1,s1,128
    80000ffc:	6880                	c.ld	s0,16(s1)
    80000ffe:	449c                	c.lw	a5,8(s1)
    80001000:	37fd                	c.addiw	a5,-1
    80001002:	0007d663          	bge	a5,zero,8000100e <__sfp+0x34>
    80001006:	609c                	c.ld	a5,0(s1)
    80001008:	cfa9                	c.beqz	a5,80001062 <__sfp+0x88>
    8000100a:	6084                	c.ld	s1,0(s1)
    8000100c:	bfc5                	c.j	80000ffc <__sfp+0x22>
    8000100e:	01041703          	lh	a4,16(s0)
    80001012:	e729                	c.bnez	a4,8000105c <__sfp+0x82>
    80001014:	77c1                	c.lui	a5,0xffff0
    80001016:	0785                	c.addi	a5,1
    80001018:	0a042623          	sw	zero,172(s0)
    8000101c:	00043023          	sd	zero,0(s0)
    80001020:	00043423          	sd	zero,8(s0)
    80001024:	c81c                	c.sw	a5,16(s0)
    80001026:	00043c23          	sd	zero,24(s0)
    8000102a:	02042023          	sw	zero,32(s0)
    8000102e:	02042423          	sw	zero,40(s0)
    80001032:	4621                	c.li	a2,8
    80001034:	4581                	c.li	a1,0
    80001036:	0a440513          	addi	a0,s0,164
    8000103a:	250000ef          	jal	ra,8000128a <memset>
    8000103e:	06043023          	sd	zero,96(s0)
    80001042:	06042423          	sw	zero,104(s0)
    80001046:	08043023          	sd	zero,128(s0)
    8000104a:	08042423          	sw	zero,136(s0)
    8000104e:	60e2                	c.ldsp	ra,24(sp)
    80001050:	8522                	c.mv	a0,s0
    80001052:	6442                	c.ldsp	s0,16(sp)
    80001054:	64a2                	c.ldsp	s1,8(sp)
    80001056:	6902                	c.ldsp	s2,0(sp)
    80001058:	6105                	c.addi16sp	sp,32
    8000105a:	8082                	c.jr	ra
    8000105c:	0b040413          	addi	s0,s0,176
    80001060:	b745                	c.j	80001000 <__sfp+0x26>
    80001062:	4591                	c.li	a1,4
    80001064:	854a                	c.mv	a0,s2
    80001066:	eadff0ef          	jal	ra,80000f12 <__sfmoreglue>
    8000106a:	e088                	c.sd	a0,0(s1)
    8000106c:	842a                	c.mv	s0,a0
    8000106e:	fd51                	c.bnez	a0,8000100a <__sfp+0x30>
    80001070:	47b1                	c.li	a5,12
    80001072:	00f92023          	sw	a5,0(s2)
    80001076:	bfe1                	c.j	8000104e <__sfp+0x74>

0000000080001078 <__sfp_lock_acquire>:
    80001078:	8082                	c.jr	ra

000000008000107a <__sfp_lock_release>:
    8000107a:	8082                	c.jr	ra

000000008000107c <__sinit_lock_acquire>:
    8000107c:	8082                	c.jr	ra

000000008000107e <__sinit_lock_release>:
    8000107e:	8082                	c.jr	ra

0000000080001080 <__fp_lock_all>:
    80001080:	00000597          	auipc	a1,0x0
    80001084:	e1a58593          	addi	a1,a1,-486 # 80000e9a <__fp_lock>
    80001088:	00002517          	auipc	a0,0x2
    8000108c:	db853503          	ld	a0,-584(a0) # 80002e40 <_impure_ptr>
    80001090:	a811                	c.j	800010a4 <_fwalk>

0000000080001092 <__fp_unlock_all>:
    80001092:	00000597          	auipc	a1,0x0
    80001096:	e7c58593          	addi	a1,a1,-388 # 80000f0e <__fp_unlock>
    8000109a:	00002517          	auipc	a0,0x2
    8000109e:	da653503          	ld	a0,-602(a0) # 80002e40 <_impure_ptr>
    800010a2:	a009                	c.j	800010a4 <_fwalk>

00000000800010a4 <_fwalk>:
    800010a4:	7139                	c.addi16sp	sp,-64
    800010a6:	f822                	c.sdsp	s0,48(sp)
    800010a8:	f426                	c.sdsp	s1,40(sp)
    800010aa:	ec4e                	c.sdsp	s3,24(sp)
    800010ac:	e456                	c.sdsp	s5,8(sp)
    800010ae:	e05a                	c.sdsp	s6,0(sp)
    800010b0:	fc06                	c.sdsp	ra,56(sp)
    800010b2:	f04a                	c.sdsp	s2,32(sp)
    800010b4:	e852                	c.sdsp	s4,16(sp)
    800010b6:	89ae                	c.mv	s3,a1
    800010b8:	08050413          	addi	s0,a0,128
    800010bc:	4481                	c.li	s1,0
    800010be:	4a85                	c.li	s5,1
    800010c0:	5b7d                	c.li	s6,-1
    800010c2:	01043903          	ld	s2,16(s0)
    800010c6:	00842a03          	lw	s4,8(s0)
    800010ca:	3a7d                	c.addiw	s4,-1
    800010cc:	000a5f63          	bge	s4,zero,800010ea <_fwalk+0x46>
    800010d0:	6000                	c.ld	s0,0(s0)
    800010d2:	f865                	c.bnez	s0,800010c2 <_fwalk+0x1e>
    800010d4:	70e2                	c.ldsp	ra,56(sp)
    800010d6:	7442                	c.ldsp	s0,48(sp)
    800010d8:	7902                	c.ldsp	s2,32(sp)
    800010da:	69e2                	c.ldsp	s3,24(sp)
    800010dc:	6a42                	c.ldsp	s4,16(sp)
    800010de:	6aa2                	c.ldsp	s5,8(sp)
    800010e0:	6b02                	c.ldsp	s6,0(sp)
    800010e2:	8526                	c.mv	a0,s1
    800010e4:	74a2                	c.ldsp	s1,40(sp)
    800010e6:	6121                	c.addi16sp	sp,64
    800010e8:	8082                	c.jr	ra
    800010ea:	01095783          	lhu	a5,16(s2)
    800010ee:	00fafa63          	bgeu	s5,a5,80001102 <_fwalk+0x5e>
    800010f2:	01291783          	lh	a5,18(s2)
    800010f6:	01678663          	beq	a5,s6,80001102 <_fwalk+0x5e>
    800010fa:	854a                	c.mv	a0,s2
    800010fc:	9982                	c.jalr	s3
    800010fe:	8cc9                	c.or	s1,a0
    80001100:	2481                	c.addiw	s1,0
    80001102:	0b090913          	addi	s2,s2,176
    80001106:	b7d1                	c.j	800010ca <_fwalk+0x26>

0000000080001108 <_fwalk_reent>:
    80001108:	715d                	c.addi16sp	sp,-80
    8000110a:	e0a2                	c.sdsp	s0,64(sp)
    8000110c:	fc26                	c.sdsp	s1,56(sp)
    8000110e:	f44e                	c.sdsp	s3,40(sp)
    80001110:	f052                	c.sdsp	s4,32(sp)
    80001112:	e85a                	c.sdsp	s6,16(sp)
    80001114:	e45e                	c.sdsp	s7,8(sp)
    80001116:	e486                	c.sdsp	ra,72(sp)
    80001118:	f84a                	c.sdsp	s2,48(sp)
    8000111a:	ec56                	c.sdsp	s5,24(sp)
    8000111c:	89aa                	c.mv	s3,a0
    8000111e:	8a2e                	c.mv	s4,a1
    80001120:	08050493          	addi	s1,a0,128
    80001124:	4401                	c.li	s0,0
    80001126:	4b05                	c.li	s6,1
    80001128:	5bfd                	c.li	s7,-1
    8000112a:	0104b903          	ld	s2,16(s1)
    8000112e:	0084aa83          	lw	s5,8(s1)
    80001132:	3afd                	c.addiw	s5,-1
    80001134:	020ad063          	bge	s5,zero,80001154 <_fwalk_reent+0x4c>
    80001138:	6084                	c.ld	s1,0(s1)
    8000113a:	f8e5                	c.bnez	s1,8000112a <_fwalk_reent+0x22>
    8000113c:	60a6                	c.ldsp	ra,72(sp)
    8000113e:	8522                	c.mv	a0,s0
    80001140:	6406                	c.ldsp	s0,64(sp)
    80001142:	74e2                	c.ldsp	s1,56(sp)
    80001144:	7942                	c.ldsp	s2,48(sp)
    80001146:	79a2                	c.ldsp	s3,40(sp)
    80001148:	7a02                	c.ldsp	s4,32(sp)
    8000114a:	6ae2                	c.ldsp	s5,24(sp)
    8000114c:	6b42                	c.ldsp	s6,16(sp)
    8000114e:	6ba2                	c.ldsp	s7,8(sp)
    80001150:	6161                	c.addi16sp	sp,80
    80001152:	8082                	c.jr	ra
    80001154:	01095783          	lhu	a5,16(s2)
    80001158:	00fb7b63          	bgeu	s6,a5,8000116e <_fwalk_reent+0x66>
    8000115c:	01291783          	lh	a5,18(s2)
    80001160:	01778763          	beq	a5,s7,8000116e <_fwalk_reent+0x66>
    80001164:	85ca                	c.mv	a1,s2
    80001166:	854e                	c.mv	a0,s3
    80001168:	9a02                	c.jalr	s4
    8000116a:	8c49                	c.or	s0,a0
    8000116c:	2401                	c.addiw	s0,0
    8000116e:	0b090913          	addi	s2,s2,176
    80001172:	b7c1                	c.j	80001132 <_fwalk_reent+0x2a>

0000000080001174 <__swhatbuf_r>:
    80001174:	7175                	c.addi16sp	sp,-144
    80001176:	f8ca                	c.sdsp	s2,112(sp)
    80001178:	892e                	c.mv	s2,a1
    8000117a:	01259583          	lh	a1,18(a1)
    8000117e:	e122                	c.sdsp	s0,128(sp)
    80001180:	fca6                	c.sdsp	s1,120(sp)
    80001182:	e506                	c.sdsp	ra,136(sp)
    80001184:	8432                	c.mv	s0,a2
    80001186:	84b6                	c.mv	s1,a3
    80001188:	0005dc63          	bge	a1,zero,800011a0 <__swhatbuf_r+0x2c>
    8000118c:	01095783          	lhu	a5,16(s2)
    80001190:	0004a023          	sw	zero,0(s1)
    80001194:	0807f793          	andi	a5,a5,128
    80001198:	e395                	c.bnez	a5,800011bc <__swhatbuf_r+0x48>
    8000119a:	40000793          	addi	a5,zero,1024
    8000119e:	a00d                	c.j	800011c0 <__swhatbuf_r+0x4c>
    800011a0:	0030                	c.addi4spn	a2,sp,8
    800011a2:	7a5000ef          	jal	ra,80002146 <_fstat_r>
    800011a6:	fe0543e3          	blt	a0,zero,8000118c <__swhatbuf_r+0x18>
    800011aa:	47b2                	c.lwsp	a5,12(sp)
    800011ac:	673d                	c.lui	a4,0xf
    800011ae:	8ff9                	c.and	a5,a4
    800011b0:	6709                	c.lui	a4,0x2
    800011b2:	8f99                	c.sub	a5,a4
    800011b4:	0017b793          	sltiu	a5,a5,1
    800011b8:	c09c                	c.sw	a5,0(s1)
    800011ba:	b7c5                	c.j	8000119a <__swhatbuf_r+0x26>
    800011bc:	04000793          	addi	a5,zero,64
    800011c0:	60aa                	c.ldsp	ra,136(sp)
    800011c2:	e01c                	c.sd	a5,0(s0)
    800011c4:	640a                	c.ldsp	s0,128(sp)
    800011c6:	74e6                	c.ldsp	s1,120(sp)
    800011c8:	7946                	c.ldsp	s2,112(sp)
    800011ca:	4501                	c.li	a0,0
    800011cc:	6149                	c.addi16sp	sp,144
    800011ce:	8082                	c.jr	ra

00000000800011d0 <__smakebuf_r>:
    800011d0:	0105d783          	lhu	a5,16(a1)
    800011d4:	7179                	c.addi16sp	sp,-48
    800011d6:	f022                	c.sdsp	s0,32(sp)
    800011d8:	f406                	c.sdsp	ra,40(sp)
    800011da:	ec26                	c.sdsp	s1,24(sp)
    800011dc:	e84a                	c.sdsp	s2,16(sp)
    800011de:	8b89                	c.andi	a5,2
    800011e0:	842e                	c.mv	s0,a1
    800011e2:	cf89                	c.beqz	a5,800011fc <__smakebuf_r+0x2c>
    800011e4:	07f40793          	addi	a5,s0,127
    800011e8:	e01c                	c.sd	a5,0(s0)
    800011ea:	ec1c                	c.sd	a5,24(s0)
    800011ec:	4785                	c.li	a5,1
    800011ee:	d01c                	c.sw	a5,32(s0)
    800011f0:	70a2                	c.ldsp	ra,40(sp)
    800011f2:	7402                	c.ldsp	s0,32(sp)
    800011f4:	64e2                	c.ldsp	s1,24(sp)
    800011f6:	6942                	c.ldsp	s2,16(sp)
    800011f8:	6145                	c.addi16sp	sp,48
    800011fa:	8082                	c.jr	ra
    800011fc:	0054                	c.addi4spn	a3,sp,4
    800011fe:	0030                	c.addi4spn	a2,sp,8
    80001200:	892a                	c.mv	s2,a0
    80001202:	f73ff0ef          	jal	ra,80001174 <__swhatbuf_r>
    80001206:	65a2                	c.ldsp	a1,8(sp)
    80001208:	84aa                	c.mv	s1,a0
    8000120a:	854a                	c.mv	a0,s2
    8000120c:	134000ef          	jal	ra,80001340 <_malloc_r>
    80001210:	ed01                	c.bnez	a0,80001228 <__smakebuf_r+0x58>
    80001212:	01041783          	lh	a5,16(s0)
    80001216:	2007f713          	andi	a4,a5,512
    8000121a:	fb79                	c.bnez	a4,800011f0 <__smakebuf_r+0x20>
    8000121c:	9bf1                	c.andi	a5,-4
    8000121e:	0027e793          	ori	a5,a5,2
    80001222:	00f41823          	sh	a5,16(s0)
    80001226:	bf7d                	c.j	800011e4 <__smakebuf_r+0x14>
    80001228:	00000797          	auipc	a5,0x0
    8000122c:	cdc78793          	addi	a5,a5,-804 # 80000f04 <_cleanup_r>
    80001230:	04f93423          	sd	a5,72(s2)
    80001234:	01045783          	lhu	a5,16(s0)
    80001238:	e008                	c.sd	a0,0(s0)
    8000123a:	ec08                	c.sd	a0,24(s0)
    8000123c:	0807e793          	ori	a5,a5,128
    80001240:	00f41823          	sh	a5,16(s0)
    80001244:	67a2                	c.ldsp	a5,8(sp)
    80001246:	d01c                	c.sw	a5,32(s0)
    80001248:	4792                	c.lwsp	a5,4(sp)
    8000124a:	cf91                	c.beqz	a5,80001266 <__smakebuf_r+0x96>
    8000124c:	01241583          	lh	a1,18(s0)
    80001250:	854a                	c.mv	a0,s2
    80001252:	20a010ef          	jal	ra,8000245c <_isatty_r>
    80001256:	c901                	c.beqz	a0,80001266 <__smakebuf_r+0x96>
    80001258:	01045783          	lhu	a5,16(s0)
    8000125c:	9bf1                	c.andi	a5,-4
    8000125e:	0017e793          	ori	a5,a5,1
    80001262:	00f41823          	sh	a5,16(s0)
    80001266:	01045503          	lhu	a0,16(s0)
    8000126a:	8cc9                	c.or	s1,a0
    8000126c:	00941823          	sh	s1,16(s0)
    80001270:	b741                	c.j	800011f0 <__smakebuf_r+0x20>

0000000080001272 <malloc>:
    80001272:	85aa                	c.mv	a1,a0
    80001274:	00002517          	auipc	a0,0x2
    80001278:	bcc53503          	ld	a0,-1076(a0) # 80002e40 <_impure_ptr>
    8000127c:	a0d1                	c.j	80001340 <_malloc_r>

000000008000127e <free>:
    8000127e:	85aa                	c.mv	a1,a0
    80001280:	00002517          	auipc	a0,0x2
    80001284:	bc053503          	ld	a0,-1088(a0) # 80002e40 <_impure_ptr>
    80001288:	a809                	c.j	8000129a <_free_r>

000000008000128a <memset>:
    8000128a:	832a                	c.mv	t1,a0
    8000128c:	c611                	c.beqz	a2,80001298 <memset+0xe>
    8000128e:	00b30023          	sb	a1,0(t1)
    80001292:	167d                	c.addi	a2,-1
    80001294:	0305                	c.addi	t1,1
    80001296:	fe65                	c.bnez	a2,8000128e <memset+0x4>
    80001298:	8082                	c.jr	ra

000000008000129a <_free_r>:
    8000129a:	c1d5                	c.beqz	a1,8000133e <_free_r+0xa4>
    8000129c:	ff85b783          	ld	a5,-8(a1)
    800012a0:	1101                	c.addi	sp,-32
    800012a2:	e822                	c.sdsp	s0,16(sp)
    800012a4:	ec06                	c.sdsp	ra,24(sp)
    800012a6:	ff858413          	addi	s0,a1,-8
    800012aa:	0007d363          	bge	a5,zero,800012b0 <_free_r+0x16>
    800012ae:	943e                	c.add	s0,a5
    800012b0:	e42a                	c.sdsp	a0,8(sp)
    800012b2:	254010ef          	jal	ra,80002506 <__malloc_lock>
    800012b6:	83018713          	addi	a4,gp,-2000 # 80002e70 <__malloc_free_list>
    800012ba:	631c                	c.ld	a5,0(a4)
    800012bc:	6522                	c.ldsp	a0,8(sp)
    800012be:	863a                	c.mv	a2,a4
    800012c0:	eb89                	c.bnez	a5,800012d2 <_free_r+0x38>
    800012c2:	00043423          	sd	zero,8(s0)
    800012c6:	e300                	c.sd	s0,0(a4)
    800012c8:	6442                	c.ldsp	s0,16(sp)
    800012ca:	60e2                	c.ldsp	ra,24(sp)
    800012cc:	6105                	c.addi16sp	sp,32
    800012ce:	23a0106f          	jal	zero,80002508 <__malloc_unlock>
    800012d2:	00f47e63          	bgeu	s0,a5,800012ee <_free_r+0x54>
    800012d6:	6014                	c.ld	a3,0(s0)
    800012d8:	00d40733          	add	a4,s0,a3
    800012dc:	00e79663          	bne	a5,a4,800012e8 <_free_r+0x4e>
    800012e0:	6398                	c.ld	a4,0(a5)
    800012e2:	679c                	c.ld	a5,8(a5)
    800012e4:	9736                	c.add	a4,a3
    800012e6:	e018                	c.sd	a4,0(s0)
    800012e8:	e41c                	c.sd	a5,8(s0)
    800012ea:	e200                	c.sd	s0,0(a2)
    800012ec:	bff1                	c.j	800012c8 <_free_r+0x2e>
    800012ee:	873e                	c.mv	a4,a5
    800012f0:	679c                	c.ld	a5,8(a5)
    800012f2:	c399                	c.beqz	a5,800012f8 <_free_r+0x5e>
    800012f4:	fef47de3          	bgeu	s0,a5,800012ee <_free_r+0x54>
    800012f8:	6314                	c.ld	a3,0(a4)
    800012fa:	00d70633          	add	a2,a4,a3
    800012fe:	00861f63          	bne	a2,s0,8000131c <_free_r+0x82>
    80001302:	6010                	c.ld	a2,0(s0)
    80001304:	96b2                	c.add	a3,a2
    80001306:	e314                	c.sd	a3,0(a4)
    80001308:	00d70633          	add	a2,a4,a3
    8000130c:	fac79ee3          	bne	a5,a2,800012c8 <_free_r+0x2e>
    80001310:	6390                	c.ld	a2,0(a5)
    80001312:	679c                	c.ld	a5,8(a5)
    80001314:	96b2                	c.add	a3,a2
    80001316:	e314                	c.sd	a3,0(a4)
    80001318:	e71c                	c.sd	a5,8(a4)
    8000131a:	b77d                	c.j	800012c8 <_free_r+0x2e>
    8000131c:	00c47563          	bgeu	s0,a2,80001326 <_free_r+0x8c>
    80001320:	47b1                	c.li	a5,12
    80001322:	c11c                	c.sw	a5,0(a0)
    80001324:	b755                	c.j	800012c8 <_free_r+0x2e>
    80001326:	6010                	c.ld	a2,0(s0)
    80001328:	00c406b3          	add	a3,s0,a2
    8000132c:	00d79663          	bne	a5,a3,80001338 <_free_r+0x9e>
    80001330:	6394                	c.ld	a3,0(a5)
    80001332:	679c                	c.ld	a5,8(a5)
    80001334:	96b2                	c.add	a3,a2
    80001336:	e014                	c.sd	a3,0(s0)
    80001338:	e41c                	c.sd	a5,8(s0)
    8000133a:	e700                	c.sd	s0,8(a4)
    8000133c:	b771                	c.j	800012c8 <_free_r+0x2e>
    8000133e:	8082                	c.jr	ra

0000000080001340 <_malloc_r>:
    80001340:	00758793          	addi	a5,a1,7
    80001344:	7179                	c.addi16sp	sp,-48
    80001346:	9be1                	c.andi	a5,-8
    80001348:	ec26                	c.sdsp	s1,24(sp)
    8000134a:	e84a                	c.sdsp	s2,16(sp)
    8000134c:	f406                	c.sdsp	ra,40(sp)
    8000134e:	f022                	c.sdsp	s0,32(sp)
    80001350:	e44e                	c.sdsp	s3,8(sp)
    80001352:	07a1                	c.addi	a5,8
    80001354:	4741                	c.li	a4,16
    80001356:	84aa                	c.mv	s1,a0
    80001358:	4941                	c.li	s2,16
    8000135a:	00e7e363          	bltu	a5,a4,80001360 <_malloc_r+0x20>
    8000135e:	893e                	c.mv	s2,a5
    80001360:	80000737          	lui	a4,0x80000
    80001364:	fff74713          	xori	a4,a4,-1
    80001368:	00f76463          	bltu	a4,a5,80001370 <_malloc_r+0x30>
    8000136c:	00b97c63          	bgeu	s2,a1,80001384 <_malloc_r+0x44>
    80001370:	47b1                	c.li	a5,12
    80001372:	c09c                	c.sw	a5,0(s1)
    80001374:	4501                	c.li	a0,0
    80001376:	70a2                	c.ldsp	ra,40(sp)
    80001378:	7402                	c.ldsp	s0,32(sp)
    8000137a:	64e2                	c.ldsp	s1,24(sp)
    8000137c:	6942                	c.ldsp	s2,16(sp)
    8000137e:	69a2                	c.ldsp	s3,8(sp)
    80001380:	6145                	c.addi16sp	sp,48
    80001382:	8082                	c.jr	ra
    80001384:	8526                	c.mv	a0,s1
    80001386:	180010ef          	jal	ra,80002506 <__malloc_lock>
    8000138a:	83018793          	addi	a5,gp,-2000 # 80002e70 <__malloc_free_list>
    8000138e:	6398                	c.ld	a4,0(a5)
    80001390:	86be                	c.mv	a3,a5
    80001392:	843a                	c.mv	s0,a4
    80001394:	e41d                	c.bnez	s0,800013c2 <_malloc_r+0x82>
    80001396:	83818413          	addi	s0,gp,-1992 # 80002e78 <__malloc_sbrk_start>
    8000139a:	601c                	c.ld	a5,0(s0)
    8000139c:	e791                	c.bnez	a5,800013a8 <_malloc_r+0x68>
    8000139e:	4581                	c.li	a1,0
    800013a0:	8526                	c.mv	a0,s1
    800013a2:	465000ef          	jal	ra,80002006 <_sbrk_r>
    800013a6:	e008                	c.sd	a0,0(s0)
    800013a8:	85ca                	c.mv	a1,s2
    800013aa:	8526                	c.mv	a0,s1
    800013ac:	45b000ef          	jal	ra,80002006 <_sbrk_r>
    800013b0:	59fd                	c.li	s3,-1
    800013b2:	05351e63          	bne	a0,s3,8000140e <_malloc_r+0xce>
    800013b6:	47b1                	c.li	a5,12
    800013b8:	c09c                	c.sw	a5,0(s1)
    800013ba:	8526                	c.mv	a0,s1
    800013bc:	14c010ef          	jal	ra,80002508 <__malloc_unlock>
    800013c0:	bf55                	c.j	80001374 <_malloc_r+0x34>
    800013c2:	601c                	c.ld	a5,0(s0)
    800013c4:	412787bb          	subw	a5,a5,s2
    800013c8:	0407c063          	blt	a5,zero,80001408 <_malloc_r+0xc8>
    800013cc:	463d                	c.li	a2,15
    800013ce:	00f65763          	bge	a2,a5,800013dc <_malloc_r+0x9c>
    800013d2:	e01c                	c.sd	a5,0(s0)
    800013d4:	943e                	c.add	s0,a5
    800013d6:	01243023          	sd	s2,0(s0)
    800013da:	a029                	c.j	800013e4 <_malloc_r+0xa4>
    800013dc:	641c                	c.ld	a5,8(s0)
    800013de:	02871363          	bne	a4,s0,80001404 <_malloc_r+0xc4>
    800013e2:	e29c                	c.sd	a5,0(a3)
    800013e4:	8526                	c.mv	a0,s1
    800013e6:	122010ef          	jal	ra,80002508 <__malloc_unlock>
    800013ea:	00f40513          	addi	a0,s0,15
    800013ee:	00840793          	addi	a5,s0,8
    800013f2:	9961                	c.andi	a0,-8
    800013f4:	40f507bb          	subw	a5,a0,a5
    800013f8:	dfbd                	c.beqz	a5,80001376 <_malloc_r+0x36>
    800013fa:	943e                	c.add	s0,a5
    800013fc:	40f007bb          	subw	a5,zero,a5
    80001400:	e01c                	c.sd	a5,0(s0)
    80001402:	bf95                	c.j	80001376 <_malloc_r+0x36>
    80001404:	e71c                	c.sd	a5,8(a4)
    80001406:	bff9                	c.j	800013e4 <_malloc_r+0xa4>
    80001408:	8722                	c.mv	a4,s0
    8000140a:	6400                	c.ld	s0,8(s0)
    8000140c:	b761                	c.j	80001394 <_malloc_r+0x54>
    8000140e:	00750413          	addi	s0,a0,7
    80001412:	9861                	c.andi	s0,-8
    80001414:	fc8501e3          	beq	a0,s0,800013d6 <_malloc_r+0x96>
    80001418:	40a405b3          	sub	a1,s0,a0
    8000141c:	8526                	c.mv	a0,s1
    8000141e:	3e9000ef          	jal	ra,80002006 <_sbrk_r>
    80001422:	fb351ae3          	bne	a0,s3,800013d6 <_malloc_r+0x96>
    80001426:	bf41                	c.j	800013b6 <_malloc_r+0x76>

0000000080001428 <__ssputs_r>:
    80001428:	7139                	c.addi16sp	sp,-64
    8000142a:	f04a                	c.sdsp	s2,32(sp)
    8000142c:	00c5a903          	lw	s2,12(a1)
    80001430:	f822                	c.sdsp	s0,48(sp)
    80001432:	ec4e                	c.sdsp	s3,24(sp)
    80001434:	e852                	c.sdsp	s4,16(sp)
    80001436:	fc06                	c.sdsp	ra,56(sp)
    80001438:	f426                	c.sdsp	s1,40(sp)
    8000143a:	e456                	c.sdsp	s5,8(sp)
    8000143c:	e05a                	c.sdsp	s6,0(sp)
    8000143e:	842e                	c.mv	s0,a1
    80001440:	8a32                	c.mv	s4,a2
    80001442:	89b6                	c.mv	s3,a3
    80001444:	0b26e263          	bltu	a3,s2,800014e8 <__ssputs_r+0xc0>
    80001448:	0105d783          	lhu	a5,16(a1)
    8000144c:	4807f713          	andi	a4,a5,1152
    80001450:	cb51                	c.beqz	a4,800014e4 <__ssputs_r+0xbc>
    80001452:	5014                	c.lw	a3,32(s0)
    80001454:	448d                	c.li	s1,3
    80001456:	6d8c                	c.ld	a1,24(a1)
    80001458:	02d484bb          	mulw	s1,s1,a3
    8000145c:	4689                	c.li	a3,2
    8000145e:	6018                	c.ld	a4,0(s0)
    80001460:	8b2a                	c.mv	s6,a0
    80001462:	8f0d                	c.sub	a4,a1
    80001464:	00070a9b          	addiw	s5,a4,0
    80001468:	02d4c4bb          	divw	s1,s1,a3
    8000146c:	00198693          	addi	a3,s3,1
    80001470:	96d6                	c.add	a3,s5
    80001472:	00d4f563          	bgeu	s1,a3,8000147c <__ssputs_r+0x54>
    80001476:	0019849b          	addiw	s1,s3,1
    8000147a:	9cb9                	c.addw	s1,a4
    8000147c:	4007f793          	andi	a5,a5,1024
    80001480:	c7c1                	c.beqz	a5,80001508 <__ssputs_r+0xe0>
    80001482:	85a6                	c.mv	a1,s1
    80001484:	855a                	c.mv	a0,s6
    80001486:	ebbff0ef          	jal	ra,80001340 <_malloc_r>
    8000148a:	892a                	c.mv	s2,a0
    8000148c:	e50d                	c.bnez	a0,800014b6 <__ssputs_r+0x8e>
    8000148e:	47b1                	c.li	a5,12
    80001490:	00fb2023          	sw	a5,0(s6)
    80001494:	01045783          	lhu	a5,16(s0)
    80001498:	557d                	c.li	a0,-1
    8000149a:	0407e793          	ori	a5,a5,64
    8000149e:	00f41823          	sh	a5,16(s0)
    800014a2:	70e2                	c.ldsp	ra,56(sp)
    800014a4:	7442                	c.ldsp	s0,48(sp)
    800014a6:	74a2                	c.ldsp	s1,40(sp)
    800014a8:	7902                	c.ldsp	s2,32(sp)
    800014aa:	69e2                	c.ldsp	s3,24(sp)
    800014ac:	6a42                	c.ldsp	s4,16(sp)
    800014ae:	6aa2                	c.ldsp	s5,8(sp)
    800014b0:	6b02                	c.ldsp	s6,0(sp)
    800014b2:	6121                	c.addi16sp	sp,64
    800014b4:	8082                	c.jr	ra
    800014b6:	6c0c                	c.ld	a1,24(s0)
    800014b8:	8656                	c.mv	a2,s5
    800014ba:	010010ef          	jal	ra,800024ca <memcpy>
    800014be:	01045783          	lhu	a5,16(s0)
    800014c2:	b7f7f793          	andi	a5,a5,-1153
    800014c6:	0807e793          	ori	a5,a5,128
    800014ca:	00f41823          	sh	a5,16(s0)
    800014ce:	01243c23          	sd	s2,24(s0)
    800014d2:	d004                	c.sw	s1,32(s0)
    800014d4:	9956                	c.add	s2,s5
    800014d6:	415484bb          	subw	s1,s1,s5
    800014da:	01243023          	sd	s2,0(s0)
    800014de:	c444                	c.sw	s1,12(s0)
    800014e0:	0009891b          	addiw	s2,s3,0
    800014e4:	0129f463          	bgeu	s3,s2,800014ec <__ssputs_r+0xc4>
    800014e8:	0009891b          	addiw	s2,s3,0
    800014ec:	6008                	c.ld	a0,0(s0)
    800014ee:	864a                	c.mv	a2,s2
    800014f0:	85d2                	c.mv	a1,s4
    800014f2:	7ef000ef          	jal	ra,800024e0 <memmove>
    800014f6:	445c                	c.lw	a5,12(s0)
    800014f8:	6010                	c.ld	a2,0(s0)
    800014fa:	4501                	c.li	a0,0
    800014fc:	412787bb          	subw	a5,a5,s2
    80001500:	964a                	c.add	a2,s2
    80001502:	c45c                	c.sw	a5,12(s0)
    80001504:	e010                	c.sd	a2,0(s0)
    80001506:	bf71                	c.j	800014a2 <__ssputs_r+0x7a>
    80001508:	8626                	c.mv	a2,s1
    8000150a:	855a                	c.mv	a0,s6
    8000150c:	7ff000ef          	jal	ra,8000250a <_realloc_r>
    80001510:	892a                	c.mv	s2,a0
    80001512:	fd55                	c.bnez	a0,800014ce <__ssputs_r+0xa6>
    80001514:	6c0c                	c.ld	a1,24(s0)
    80001516:	855a                	c.mv	a0,s6
    80001518:	d83ff0ef          	jal	ra,8000129a <_free_r>
    8000151c:	bf8d                	c.j	8000148e <__ssputs_r+0x66>

000000008000151e <__ssprint_r>:
    8000151e:	6a1c                	c.ld	a5,16(a2)
    80001520:	711d                	c.addi16sp	sp,-96
    80001522:	e06a                	c.sdsp	s10,0(sp)
    80001524:	ec86                	c.sdsp	ra,88(sp)
    80001526:	e8a2                	c.sdsp	s0,80(sp)
    80001528:	e4a6                	c.sdsp	s1,72(sp)
    8000152a:	e0ca                	c.sdsp	s2,64(sp)
    8000152c:	fc4e                	c.sdsp	s3,56(sp)
    8000152e:	f852                	c.sdsp	s4,48(sp)
    80001530:	f456                	c.sdsp	s5,40(sp)
    80001532:	f05a                	c.sdsp	s6,32(sp)
    80001534:	ec5e                	c.sdsp	s7,24(sp)
    80001536:	e862                	c.sdsp	s8,16(sp)
    80001538:	e466                	c.sdsp	s9,8(sp)
    8000153a:	8d32                	c.mv	s10,a2
    8000153c:	c7f5                	c.beqz	a5,80001628 <__ssprint_r+0x10a>
    8000153e:	00063a83          	ld	s5,0(a2)
    80001542:	89aa                	c.mv	s3,a0
    80001544:	842e                	c.mv	s0,a1
    80001546:	4a01                	c.li	s4,0
    80001548:	4c81                	c.li	s9,0
    8000154a:	4b0d                	c.li	s6,3
    8000154c:	4b89                	c.li	s7,2
    8000154e:	060c8663          	beq	s9,zero,800015ba <__ssprint_r+0x9c>
    80001552:	00c42903          	lw	s2,12(s0)
    80001556:	092cef63          	bltu	s9,s2,800015f4 <__ssprint_r+0xd6>
    8000155a:	01045703          	lhu	a4,16(s0)
    8000155e:	48077793          	andi	a5,a4,1152
    80001562:	cbc9                	c.beqz	a5,800015f4 <__ssprint_r+0xd6>
    80001564:	5004                	c.lw	s1,32(s0)
    80001566:	6c0c                	c.ld	a1,24(s0)
    80001568:	601c                	c.ld	a5,0(s0)
    8000156a:	029b04bb          	mulw	s1,s6,s1
    8000156e:	8f8d                	c.sub	a5,a1
    80001570:	00078c1b          	addiw	s8,a5,0
    80001574:	001c0693          	addi	a3,s8,1
    80001578:	96e6                	c.add	a3,s9
    8000157a:	0374c4bb          	divw	s1,s1,s7
    8000157e:	00d4f663          	bgeu	s1,a3,8000158a <__ssprint_r+0x6c>
    80001582:	0017849b          	addiw	s1,a5,1
    80001586:	019484bb          	addw	s1,s1,s9
    8000158a:	40077713          	andi	a4,a4,1024
    8000158e:	cf55                	c.beqz	a4,8000164a <__ssprint_r+0x12c>
    80001590:	85a6                	c.mv	a1,s1
    80001592:	854e                	c.mv	a0,s3
    80001594:	dadff0ef          	jal	ra,80001340 <_malloc_r>
    80001598:	892a                	c.mv	s2,a0
    8000159a:	e515                	c.bnez	a0,800015c6 <__ssprint_r+0xa8>
    8000159c:	47b1                	c.li	a5,12
    8000159e:	00f9a023          	sw	a5,0(s3)
    800015a2:	01045783          	lhu	a5,16(s0)
    800015a6:	557d                	c.li	a0,-1
    800015a8:	0407e793          	ori	a5,a5,64
    800015ac:	00f41823          	sh	a5,16(s0)
    800015b0:	000d3823          	sd	zero,16(s10)
    800015b4:	000d2423          	sw	zero,8(s10)
    800015b8:	a89d                	c.j	8000162e <__ssprint_r+0x110>
    800015ba:	000aba03          	ld	s4,0(s5)
    800015be:	008abc83          	ld	s9,8(s5)
    800015c2:	0ac1                	c.addi	s5,16
    800015c4:	b769                	c.j	8000154e <__ssprint_r+0x30>
    800015c6:	6c0c                	c.ld	a1,24(s0)
    800015c8:	8662                	c.mv	a2,s8
    800015ca:	701000ef          	jal	ra,800024ca <memcpy>
    800015ce:	01045783          	lhu	a5,16(s0)
    800015d2:	b7f7f793          	andi	a5,a5,-1153
    800015d6:	0807e793          	ori	a5,a5,128
    800015da:	00f41823          	sh	a5,16(s0)
    800015de:	01243c23          	sd	s2,24(s0)
    800015e2:	d004                	c.sw	s1,32(s0)
    800015e4:	9962                	c.add	s2,s8
    800015e6:	418484bb          	subw	s1,s1,s8
    800015ea:	01243023          	sd	s2,0(s0)
    800015ee:	c444                	c.sw	s1,12(s0)
    800015f0:	000c891b          	addiw	s2,s9,0
    800015f4:	000c849b          	addiw	s1,s9,0
    800015f8:	012cf363          	bgeu	s9,s2,800015fe <__ssprint_r+0xe0>
    800015fc:	8926                	c.mv	s2,s1
    800015fe:	6008                	c.ld	a0,0(s0)
    80001600:	864a                	c.mv	a2,s2
    80001602:	85d2                	c.mv	a1,s4
    80001604:	6dd000ef          	jal	ra,800024e0 <memmove>
    80001608:	445c                	c.lw	a5,12(s0)
    8000160a:	6010                	c.ld	a2,0(s0)
    8000160c:	9a26                	c.add	s4,s1
    8000160e:	412787bb          	subw	a5,a5,s2
    80001612:	c45c                	c.sw	a5,12(s0)
    80001614:	010d3783          	ld	a5,16(s10)
    80001618:	964a                	c.add	a2,s2
    8000161a:	e010                	c.sd	a2,0(s0)
    8000161c:	8f85                	c.sub	a5,s1
    8000161e:	00fd3823          	sd	a5,16(s10)
    80001622:	409c8cb3          	sub	s9,s9,s1
    80001626:	f785                	c.bnez	a5,8000154e <__ssprint_r+0x30>
    80001628:	000d2423          	sw	zero,8(s10)
    8000162c:	4501                	c.li	a0,0
    8000162e:	60e6                	c.ldsp	ra,88(sp)
    80001630:	6446                	c.ldsp	s0,80(sp)
    80001632:	64a6                	c.ldsp	s1,72(sp)
    80001634:	6906                	c.ldsp	s2,64(sp)
    80001636:	79e2                	c.ldsp	s3,56(sp)
    80001638:	7a42                	c.ldsp	s4,48(sp)
    8000163a:	7aa2                	c.ldsp	s5,40(sp)
    8000163c:	7b02                	c.ldsp	s6,32(sp)
    8000163e:	6be2                	c.ldsp	s7,24(sp)
    80001640:	6c42                	c.ldsp	s8,16(sp)
    80001642:	6ca2                	c.ldsp	s9,8(sp)
    80001644:	6d02                	c.ldsp	s10,0(sp)
    80001646:	6125                	c.addi16sp	sp,96
    80001648:	8082                	c.jr	ra
    8000164a:	8626                	c.mv	a2,s1
    8000164c:	854e                	c.mv	a0,s3
    8000164e:	6bd000ef          	jal	ra,8000250a <_realloc_r>
    80001652:	892a                	c.mv	s2,a0
    80001654:	f549                	c.bnez	a0,800015de <__ssprint_r+0xc0>
    80001656:	6c0c                	c.ld	a1,24(s0)
    80001658:	854e                	c.mv	a0,s3
    8000165a:	c41ff0ef          	jal	ra,8000129a <_free_r>
    8000165e:	bf3d                	c.j	8000159c <__ssprint_r+0x7e>

0000000080001660 <_svfiprintf_r>:
    80001660:	0105d783          	lhu	a5,16(a1)
    80001664:	7155                	c.addi16sp	sp,-208
    80001666:	e1a2                	c.sdsp	s0,192(sp)
    80001668:	fd26                	c.sdsp	s1,184(sp)
    8000166a:	f94a                	c.sdsp	s2,176(sp)
    8000166c:	f54e                	c.sdsp	s3,168(sp)
    8000166e:	f152                	c.sdsp	s4,160(sp)
    80001670:	e586                	c.sdsp	ra,200(sp)
    80001672:	ed56                	c.sdsp	s5,152(sp)
    80001674:	e95a                	c.sdsp	s6,144(sp)
    80001676:	e55e                	c.sdsp	s7,136(sp)
    80001678:	e162                	c.sdsp	s8,128(sp)
    8000167a:	fce6                	c.sdsp	s9,120(sp)
    8000167c:	f8ea                	c.sdsp	s10,112(sp)
    8000167e:	0807f793          	andi	a5,a5,128
    80001682:	8a2a                	c.mv	s4,a0
    80001684:	892e                	c.mv	s2,a1
    80001686:	84b2                	c.mv	s1,a2
    80001688:	8436                	c.mv	s0,a3
    8000168a:	4981                	c.li	s3,0
    8000168c:	c3b1                	c.beqz	a5,800016d0 <_svfiprintf_r+0x70>
    8000168e:	6d9c                	c.ld	a5,24(a1)
    80001690:	e3a1                	c.bnez	a5,800016d0 <_svfiprintf_r+0x70>
    80001692:	04000593          	addi	a1,zero,64
    80001696:	cabff0ef          	jal	ra,80001340 <_malloc_r>
    8000169a:	00a93023          	sd	a0,0(s2)
    8000169e:	00a93c23          	sd	a0,24(s2)
    800016a2:	e11d                	c.bnez	a0,800016c8 <_svfiprintf_r+0x68>
    800016a4:	47b1                	c.li	a5,12
    800016a6:	00fa2023          	sw	a5,0(s4)
    800016aa:	557d                	c.li	a0,-1
    800016ac:	60ae                	c.ldsp	ra,200(sp)
    800016ae:	640e                	c.ldsp	s0,192(sp)
    800016b0:	74ea                	c.ldsp	s1,184(sp)
    800016b2:	794a                	c.ldsp	s2,176(sp)
    800016b4:	79aa                	c.ldsp	s3,168(sp)
    800016b6:	7a0a                	c.ldsp	s4,160(sp)
    800016b8:	6aea                	c.ldsp	s5,152(sp)
    800016ba:	6b4a                	c.ldsp	s6,144(sp)
    800016bc:	6baa                	c.ldsp	s7,136(sp)
    800016be:	6c0a                	c.ldsp	s8,128(sp)
    800016c0:	7ce6                	c.ldsp	s9,120(sp)
    800016c2:	7d46                	c.ldsp	s10,112(sp)
    800016c4:	6169                	c.addi16sp	sp,208
    800016c6:	8082                	c.jr	ra
    800016c8:	04000793          	addi	a5,zero,64
    800016cc:	02f92023          	sw	a5,32(s2)
    800016d0:	02000793          	addi	a5,zero,32
    800016d4:	02f104a3          	sb	a5,41(sp)
    800016d8:	5afd                	c.li	s5,-1
    800016da:	03000793          	addi	a5,zero,48
    800016de:	d202                	c.swsp	zero,36(sp)
    800016e0:	02f10523          	sb	a5,42(sp)
    800016e4:	e422                	c.sdsp	s0,8(sp)
    800016e6:	02500b93          	addi	s7,zero,37
    800016ea:	020a9c13          	slli	s8,s5,0x20
    800016ee:	00001b17          	auipc	s6,0x1
    800016f2:	50ab0b13          	addi	s6,s6,1290 # 80002bf8 <__sf_fake_stdout+0x38>
    800016f6:	4c85                	c.li	s9,1
    800016f8:	8426                	c.mv	s0,s1
    800016fa:	00044783          	lbu	a5,0(s0)
    800016fe:	c399                	c.beqz	a5,80001704 <_svfiprintf_r+0xa4>
    80001700:	09779c63          	bne	a5,s7,80001798 <_svfiprintf_r+0x138>
    80001704:	40940d3b          	subw	s10,s0,s1
    80001708:	000d0e63          	beq	s10,zero,80001724 <_svfiprintf_r+0xc4>
    8000170c:	86ea                	c.mv	a3,s10
    8000170e:	8626                	c.mv	a2,s1
    80001710:	85ca                	c.mv	a1,s2
    80001712:	8552                	c.mv	a0,s4
    80001714:	d15ff0ef          	jal	ra,80001428 <__ssputs_r>
    80001718:	1b550763          	beq	a0,s5,800018c6 <_svfiprintf_r+0x266>
    8000171c:	5792                	c.lwsp	a5,36(sp)
    8000171e:	01a787bb          	addw	a5,a5,s10
    80001722:	d23e                	c.swsp	a5,36(sp)
    80001724:	00044783          	lbu	a5,0(s0)
    80001728:	18078f63          	beq	a5,zero,800018c6 <_svfiprintf_r+0x266>
    8000172c:	00140493          	addi	s1,s0,1
    80001730:	e862                	c.sdsp	s8,16(sp)
    80001732:	ec02                	c.sdsp	zero,24(sp)
    80001734:	040109a3          	sb	zero,83(sp)
    80001738:	d482                	c.swsp	zero,104(sp)
    8000173a:	0004c583          	lbu	a1,0(s1)
    8000173e:	4615                	c.li	a2,5
    80001740:	855a                	c.mv	a0,s6
    80001742:	56f000ef          	jal	ra,800024b0 <memchr>
    80001746:	00148413          	addi	s0,s1,1
    8000174a:	e929                	c.bnez	a0,8000179c <_svfiprintf_r+0x13c>
    8000174c:	47c2                	c.lwsp	a5,16(sp)
    8000174e:	0107f713          	andi	a4,a5,16
    80001752:	c709                	c.beqz	a4,8000175c <_svfiprintf_r+0xfc>
    80001754:	02000713          	addi	a4,zero,32
    80001758:	04e109a3          	sb	a4,83(sp)
    8000175c:	0087f713          	andi	a4,a5,8
    80001760:	c709                	c.beqz	a4,8000176a <_svfiprintf_r+0x10a>
    80001762:	02b00713          	addi	a4,zero,43
    80001766:	04e109a3          	sb	a4,83(sp)
    8000176a:	0004c683          	lbu	a3,0(s1)
    8000176e:	02a00713          	addi	a4,zero,42
    80001772:	02e68e63          	beq	a3,a4,800017ae <_svfiprintf_r+0x14e>
    80001776:	47f2                	c.lwsp	a5,28(sp)
    80001778:	8426                	c.mv	s0,s1
    8000177a:	4681                	c.li	a3,0
    8000177c:	4625                	c.li	a2,9
    8000177e:	4829                	c.li	a6,10
    80001780:	00044703          	lbu	a4,0(s0)
    80001784:	00140513          	addi	a0,s0,1
    80001788:	fd07059b          	addiw	a1,a4,-48
    8000178c:	872e                	c.mv	a4,a1
    8000178e:	06b67563          	bgeu	a2,a1,800017f8 <_svfiprintf_r+0x198>
    80001792:	c695                	c.beqz	a3,800017be <_svfiprintf_r+0x15e>
    80001794:	ce3e                	c.swsp	a5,28(sp)
    80001796:	a025                	c.j	800017be <_svfiprintf_r+0x15e>
    80001798:	0405                	c.addi	s0,1
    8000179a:	b785                	c.j	800016fa <_svfiprintf_r+0x9a>
    8000179c:	47c2                	c.lwsp	a5,16(sp)
    8000179e:	41650533          	sub	a0,a0,s6
    800017a2:	00ac953b          	sllw	a0,s9,a0
    800017a6:	8d5d                	c.or	a0,a5
    800017a8:	c82a                	c.swsp	a0,16(sp)
    800017aa:	84a2                	c.mv	s1,s0
    800017ac:	b779                	c.j	8000173a <_svfiprintf_r+0xda>
    800017ae:	6722                	c.ldsp	a4,8(sp)
    800017b0:	00870693          	addi	a3,a4,8 # ffffffff80000008 <__heap_end+0xfffffffefffdc008>
    800017b4:	4318                	c.lw	a4,0(a4)
    800017b6:	e436                	c.sdsp	a3,8(sp)
    800017b8:	02074963          	blt	a4,zero,800017ea <_svfiprintf_r+0x18a>
    800017bc:	ce3a                	c.swsp	a4,28(sp)
    800017be:	00044703          	lbu	a4,0(s0)
    800017c2:	02e00793          	addi	a5,zero,46
    800017c6:	04f71063          	bne	a4,a5,80001806 <_svfiprintf_r+0x1a6>
    800017ca:	00144703          	lbu	a4,1(s0)
    800017ce:	02a00793          	addi	a5,zero,42
    800017d2:	0af71263          	bne	a4,a5,80001876 <_svfiprintf_r+0x216>
    800017d6:	67a2                	c.ldsp	a5,8(sp)
    800017d8:	0409                	c.addi	s0,2
    800017da:	00878713          	addi	a4,a5,8
    800017de:	439c                	c.lw	a5,0(a5)
    800017e0:	e43a                	c.sdsp	a4,8(sp)
    800017e2:	0207c163          	blt	a5,zero,80001804 <_svfiprintf_r+0x1a4>
    800017e6:	ca3e                	c.swsp	a5,20(sp)
    800017e8:	a839                	c.j	80001806 <_svfiprintf_r+0x1a6>
    800017ea:	40e0073b          	subw	a4,zero,a4
    800017ee:	0027e793          	ori	a5,a5,2
    800017f2:	ce3a                	c.swsp	a4,28(sp)
    800017f4:	c83e                	c.swsp	a5,16(sp)
    800017f6:	b7e1                	c.j	800017be <_svfiprintf_r+0x15e>
    800017f8:	02f807bb          	mulw	a5,a6,a5
    800017fc:	842a                	c.mv	s0,a0
    800017fe:	4685                	c.li	a3,1
    80001800:	9fb9                	c.addw	a5,a4
    80001802:	bfbd                	c.j	80001780 <_svfiprintf_r+0x120>
    80001804:	ca56                	c.swsp	s5,20(sp)
    80001806:	00044583          	lbu	a1,0(s0)
    8000180a:	460d                	c.li	a2,3
    8000180c:	00001517          	auipc	a0,0x1
    80001810:	3f450513          	addi	a0,a0,1012 # 80002c00 <__sf_fake_stdout+0x40>
    80001814:	49d000ef          	jal	ra,800024b0 <memchr>
    80001818:	cd11                	c.beqz	a0,80001834 <_svfiprintf_r+0x1d4>
    8000181a:	00001797          	auipc	a5,0x1
    8000181e:	3e678793          	addi	a5,a5,998 # 80002c00 <__sf_fake_stdout+0x40>
    80001822:	8d1d                	c.sub	a0,a5
    80001824:	04000793          	addi	a5,zero,64
    80001828:	00a7953b          	sllw	a0,a5,a0
    8000182c:	47c2                	c.lwsp	a5,16(sp)
    8000182e:	0405                	c.addi	s0,1
    80001830:	8d5d                	c.or	a0,a5
    80001832:	c82a                	c.swsp	a0,16(sp)
    80001834:	00044583          	lbu	a1,0(s0)
    80001838:	4619                	c.li	a2,6
    8000183a:	00001517          	auipc	a0,0x1
    8000183e:	3ce50513          	addi	a0,a0,974 # 80002c08 <__sf_fake_stdout+0x48>
    80001842:	00140493          	addi	s1,s0,1
    80001846:	02b10423          	sb	a1,40(sp)
    8000184a:	467000ef          	jal	ra,800024b0 <memchr>
    8000184e:	c549                	c.beqz	a0,800018d8 <_svfiprintf_r+0x278>
    80001850:	000007b7          	lui	a5,0x0
    80001854:	00078793          	addi	a5,a5,0 # 0 <__boot_hart>
    80001858:	eba1                	c.bnez	a5,800018a8 <_svfiprintf_r+0x248>
    8000185a:	4742                	c.lwsp	a4,16(sp)
    8000185c:	67a2                	c.ldsp	a5,8(sp)
    8000185e:	10077713          	andi	a4,a4,256
    80001862:	c329                	c.beqz	a4,800018a4 <_svfiprintf_r+0x244>
    80001864:	07bd                	c.addi	a5,15
    80001866:	9bc1                	c.andi	a5,-16
    80001868:	07c1                	c.addi	a5,16
    8000186a:	e43e                	c.sdsp	a5,8(sp)
    8000186c:	5792                	c.lwsp	a5,36(sp)
    8000186e:	013787bb          	addw	a5,a5,s3
    80001872:	d23e                	c.swsp	a5,36(sp)
    80001874:	b551                	c.j	800016f8 <_svfiprintf_r+0x98>
    80001876:	0405                	c.addi	s0,1
    80001878:	ca02                	c.swsp	zero,20(sp)
    8000187a:	4681                	c.li	a3,0
    8000187c:	4781                	c.li	a5,0
    8000187e:	4625                	c.li	a2,9
    80001880:	4829                	c.li	a6,10
    80001882:	00044703          	lbu	a4,0(s0)
    80001886:	00140513          	addi	a0,s0,1
    8000188a:	fd07059b          	addiw	a1,a4,-48
    8000188e:	872e                	c.mv	a4,a1
    80001890:	00b67463          	bgeu	a2,a1,80001898 <_svfiprintf_r+0x238>
    80001894:	faa9                	c.bnez	a3,800017e6 <_svfiprintf_r+0x186>
    80001896:	bf85                	c.j	80001806 <_svfiprintf_r+0x1a6>
    80001898:	02f807bb          	mulw	a5,a6,a5
    8000189c:	842a                	c.mv	s0,a0
    8000189e:	4685                	c.li	a3,1
    800018a0:	9fb9                	c.addw	a5,a4
    800018a2:	b7c5                	c.j	80001882 <_svfiprintf_r+0x222>
    800018a4:	07a1                	c.addi	a5,8
    800018a6:	b7d1                	c.j	8000186a <_svfiprintf_r+0x20a>
    800018a8:	0038                	c.addi4spn	a4,sp,8
    800018aa:	00000697          	auipc	a3,0x0
    800018ae:	b7e68693          	addi	a3,a3,-1154 # 80001428 <__ssputs_r>
    800018b2:	864a                	c.mv	a2,s2
    800018b4:	080c                	c.addi4spn	a1,sp,16
    800018b6:	8552                	c.mv	a0,s4
    800018b8:	00000097          	auipc	ra,0x0
    800018bc:	000000e7          	jalr	ra,0(zero) # 0 <__boot_hart>
    800018c0:	89aa                	c.mv	s3,a0
    800018c2:	fb5515e3          	bne	a0,s5,8000186c <_svfiprintf_r+0x20c>
    800018c6:	01095783          	lhu	a5,16(s2)
    800018ca:	557d                	c.li	a0,-1
    800018cc:	0407f793          	andi	a5,a5,64
    800018d0:	dc079ee3          	bne	a5,zero,800016ac <_svfiprintf_r+0x4c>
    800018d4:	5512                	c.lwsp	a0,36(sp)
    800018d6:	bbd9                	c.j	800016ac <_svfiprintf_r+0x4c>
    800018d8:	0038                	c.addi4spn	a4,sp,8
    800018da:	00000697          	auipc	a3,0x0
    800018de:	b4e68693          	addi	a3,a3,-1202 # 80001428 <__ssputs_r>
    800018e2:	864a                	c.mv	a2,s2
    800018e4:	080c                	c.addi4spn	a1,sp,16
    800018e6:	8552                	c.mv	a0,s4
    800018e8:	12c000ef          	jal	ra,80001a14 <_printf_i>
    800018ec:	bfd1                	c.j	800018c0 <_svfiprintf_r+0x260>

00000000800018ee <_printf_common>:
    800018ee:	715d                	c.addi16sp	sp,-80
    800018f0:	499c                	c.lw	a5,16(a1)
    800018f2:	f052                	c.sdsp	s4,32(sp)
    800018f4:	8a3a                	c.mv	s4,a4
    800018f6:	4598                	c.lw	a4,8(a1)
    800018f8:	e0a2                	c.sdsp	s0,64(sp)
    800018fa:	f84a                	c.sdsp	s2,48(sp)
    800018fc:	f44e                	c.sdsp	s3,40(sp)
    800018fe:	ec56                	c.sdsp	s5,24(sp)
    80001900:	8932                	c.mv	s2,a2
    80001902:	8ab6                	c.mv	s5,a3
    80001904:	e486                	c.sdsp	ra,72(sp)
    80001906:	fc26                	c.sdsp	s1,56(sp)
    80001908:	e85a                	c.sdsp	s6,16(sp)
    8000190a:	e45e                	c.sdsp	s7,8(sp)
    8000190c:	0007861b          	addiw	a2,a5,0
    80001910:	0007069b          	addiw	a3,a4,0
    80001914:	89aa                	c.mv	s3,a0
    80001916:	842e                	c.mv	s0,a1
    80001918:	00d65363          	bge	a2,a3,8000191e <_printf_common+0x30>
    8000191c:	87ba                	c.mv	a5,a4
    8000191e:	00f92023          	sw	a5,0(s2)
    80001922:	04344703          	lbu	a4,67(s0)
    80001926:	c701                	c.beqz	a4,8000192e <_printf_common+0x40>
    80001928:	2785                	c.addiw	a5,1
    8000192a:	00f92023          	sw	a5,0(s2)
    8000192e:	401c                	c.lw	a5,0(s0)
    80001930:	0207f793          	andi	a5,a5,32
    80001934:	c791                	c.beqz	a5,80001940 <_printf_common+0x52>
    80001936:	00092783          	lw	a5,0(s2)
    8000193a:	2789                	c.addiw	a5,2
    8000193c:	00f92023          	sw	a5,0(s2)
    80001940:	4004                	c.lw	s1,0(s0)
    80001942:	8899                	c.andi	s1,6
    80001944:	e891                	c.bnez	s1,80001958 <_printf_common+0x6a>
    80001946:	01940b13          	addi	s6,s0,25
    8000194a:	5bfd                	c.li	s7,-1
    8000194c:	445c                	c.lw	a5,12(s0)
    8000194e:	00092703          	lw	a4,0(s2)
    80001952:	9f99                	c.subw	a5,a4
    80001954:	06f4c163          	blt	s1,a5,800019b6 <_printf_common+0xc8>
    80001958:	04344783          	lbu	a5,67(s0)
    8000195c:	00f03733          	sltu	a4,zero,a5
    80001960:	00f036b3          	sltu	a3,zero,a5
    80001964:	401c                	c.lw	a5,0(s0)
    80001966:	0207f793          	andi	a5,a5,32
    8000196a:	ebbd                	c.bnez	a5,800019e0 <_printf_common+0xf2>
    8000196c:	04340613          	addi	a2,s0,67
    80001970:	85d6                	c.mv	a1,s5
    80001972:	854e                	c.mv	a0,s3
    80001974:	9a02                	c.jalr	s4
    80001976:	57fd                	c.li	a5,-1
    80001978:	04f50663          	beq	a0,a5,800019c4 <_printf_common+0xd6>
    8000197c:	401c                	c.lw	a5,0(s0)
    8000197e:	4611                	c.li	a2,4
    80001980:	4454                	c.lw	a3,12(s0)
    80001982:	8b99                	c.andi	a5,6
    80001984:	00092703          	lw	a4,0(s2)
    80001988:	4481                	c.li	s1,0
    8000198a:	00c79963          	bne	a5,a2,8000199c <_printf_common+0xae>
    8000198e:	40e684bb          	subw	s1,a3,a4
    80001992:	02049793          	slli	a5,s1,0x20
    80001996:	0007d363          	bge	a5,zero,8000199c <_printf_common+0xae>
    8000199a:	4481                	c.li	s1,0
    8000199c:	441c                	c.lw	a5,8(s0)
    8000199e:	4818                	c.lw	a4,16(s0)
    800019a0:	00f75463          	bge	a4,a5,800019a8 <_printf_common+0xba>
    800019a4:	9f99                	c.subw	a5,a4
    800019a6:	9cbd                	c.addw	s1,a5
    800019a8:	4901                	c.li	s2,0
    800019aa:	0469                	c.addi	s0,26
    800019ac:	5b7d                	c.li	s6,-1
    800019ae:	05249a63          	bne	s1,s2,80001a02 <_printf_common+0x114>
    800019b2:	4501                	c.li	a0,0
    800019b4:	a809                	c.j	800019c6 <_printf_common+0xd8>
    800019b6:	4685                	c.li	a3,1
    800019b8:	865a                	c.mv	a2,s6
    800019ba:	85d6                	c.mv	a1,s5
    800019bc:	854e                	c.mv	a0,s3
    800019be:	9a02                	c.jalr	s4
    800019c0:	01751e63          	bne	a0,s7,800019dc <_printf_common+0xee>
    800019c4:	557d                	c.li	a0,-1
    800019c6:	60a6                	c.ldsp	ra,72(sp)
    800019c8:	6406                	c.ldsp	s0,64(sp)
    800019ca:	74e2                	c.ldsp	s1,56(sp)
    800019cc:	7942                	c.ldsp	s2,48(sp)
    800019ce:	79a2                	c.ldsp	s3,40(sp)
    800019d0:	7a02                	c.ldsp	s4,32(sp)
    800019d2:	6ae2                	c.ldsp	s5,24(sp)
    800019d4:	6b42                	c.ldsp	s6,16(sp)
    800019d6:	6ba2                	c.ldsp	s7,8(sp)
    800019d8:	6161                	c.addi16sp	sp,80
    800019da:	8082                	c.jr	ra
    800019dc:	2485                	c.addiw	s1,1
    800019de:	b7bd                	c.j	8000194c <_printf_common+0x5e>
    800019e0:	00d407b3          	add	a5,s0,a3
    800019e4:	03000693          	addi	a3,zero,48
    800019e8:	04d781a3          	sb	a3,67(a5)
    800019ec:	0017061b          	addiw	a2,a4,1
    800019f0:	0027069b          	addiw	a3,a4,2
    800019f4:	04544703          	lbu	a4,69(s0)
    800019f8:	00c407b3          	add	a5,s0,a2
    800019fc:	04e781a3          	sb	a4,67(a5)
    80001a00:	b7b5                	c.j	8000196c <_printf_common+0x7e>
    80001a02:	4685                	c.li	a3,1
    80001a04:	8622                	c.mv	a2,s0
    80001a06:	85d6                	c.mv	a1,s5
    80001a08:	854e                	c.mv	a0,s3
    80001a0a:	9a02                	c.jalr	s4
    80001a0c:	fb650ce3          	beq	a0,s6,800019c4 <_printf_common+0xd6>
    80001a10:	2905                	c.addiw	s2,1
    80001a12:	bf71                	c.j	800019ae <_printf_common+0xc0>

0000000080001a14 <_printf_i>:
    80001a14:	715d                	c.addi16sp	sp,-80
    80001a16:	e0a2                	c.sdsp	s0,64(sp)
    80001a18:	f84a                	c.sdsp	s2,48(sp)
    80001a1a:	f44e                	c.sdsp	s3,40(sp)
    80001a1c:	f052                	c.sdsp	s4,32(sp)
    80001a1e:	e486                	c.sdsp	ra,72(sp)
    80001a20:	fc26                	c.sdsp	s1,56(sp)
    80001a22:	ec56                	c.sdsp	s5,24(sp)
    80001a24:	e85a                	c.sdsp	s6,16(sp)
    80001a26:	842e                	c.mv	s0,a1
    80001a28:	8a36                	c.mv	s4,a3
    80001a2a:	04358693          	addi	a3,a1,67
    80001a2e:	0185c583          	lbu	a1,24(a1)
    80001a32:	07800793          	addi	a5,zero,120
    80001a36:	892a                	c.mv	s2,a0
    80001a38:	89b2                	c.mv	s3,a2
    80001a3a:	00b7ec63          	bltu	a5,a1,80001a52 <_printf_i+0x3e>
    80001a3e:	06200793          	addi	a5,zero,98
    80001a42:	00b7ed63          	bltu	a5,a1,80001a5c <_printf_i+0x48>
    80001a46:	1c058863          	beq	a1,zero,80001c16 <_printf_i+0x202>
    80001a4a:	05800793          	addi	a5,zero,88
    80001a4e:	14f58063          	beq	a1,a5,80001b8e <_printf_i+0x17a>
    80001a52:	04240493          	addi	s1,s0,66
    80001a56:	04b40123          	sb	a1,66(s0)
    80001a5a:	a815                	c.j	80001a8e <_printf_i+0x7a>
    80001a5c:	f9d5879b          	addiw	a5,a1,-99
    80001a60:	0ff7f793          	andi	a5,a5,255
    80001a64:	4655                	c.li	a2,21
    80001a66:	fef666e3          	bltu	a2,a5,80001a52 <_printf_i+0x3e>
    80001a6a:	00001617          	auipc	a2,0x1
    80001a6e:	1d660613          	addi	a2,a2,470 # 80002c40 <__sf_fake_stdout+0x80>
    80001a72:	078a                	c.slli	a5,0x2
    80001a74:	97b2                	c.add	a5,a2
    80001a76:	439c                	c.lw	a5,0(a5)
    80001a78:	97b2                	c.add	a5,a2
    80001a7a:	8782                	c.jr	a5
    80001a7c:	631c                	c.ld	a5,0(a4)
    80001a7e:	04240493          	addi	s1,s0,66
    80001a82:	00878693          	addi	a3,a5,8
    80001a86:	439c                	c.lw	a5,0(a5)
    80001a88:	e314                	c.sd	a3,0(a4)
    80001a8a:	04f40123          	sb	a5,66(s0)
    80001a8e:	4785                	c.li	a5,1
    80001a90:	aa7d                	c.j	80001c4e <_printf_i+0x23a>
    80001a92:	4010                	c.lw	a2,0(s0)
    80001a94:	631c                	c.ld	a5,0(a4)
    80001a96:	08067513          	andi	a0,a2,128
    80001a9a:	00878593          	addi	a1,a5,8
    80001a9e:	c10d                	c.beqz	a0,80001ac0 <_printf_i+0xac>
    80001aa0:	639c                	c.ld	a5,0(a5)
    80001aa2:	e30c                	c.sd	a1,0(a4)
    80001aa4:	0007d863          	bge	a5,zero,80001ab4 <_printf_i+0xa0>
    80001aa8:	02d00713          	addi	a4,zero,45
    80001aac:	40f007b3          	sub	a5,zero,a5
    80001ab0:	04e401a3          	sb	a4,67(s0)
    80001ab4:	00001617          	auipc	a2,0x1
    80001ab8:	15c60613          	addi	a2,a2,348 # 80002c10 <__sf_fake_stdout+0x50>
    80001abc:	4729                	c.li	a4,10
    80001abe:	a83d                	c.j	80001afc <_printf_i+0xe8>
    80001ac0:	04067613          	andi	a2,a2,64
    80001ac4:	e30c                	c.sd	a1,0(a4)
    80001ac6:	c601                	c.beqz	a2,80001ace <_printf_i+0xba>
    80001ac8:	00079783          	lh	a5,0(a5)
    80001acc:	bfe1                	c.j	80001aa4 <_printf_i+0x90>
    80001ace:	439c                	c.lw	a5,0(a5)
    80001ad0:	bfd1                	c.j	80001aa4 <_printf_i+0x90>
    80001ad2:	4010                	c.lw	a2,0(s0)
    80001ad4:	631c                	c.ld	a5,0(a4)
    80001ad6:	08067813          	andi	a6,a2,128
    80001ada:	00878513          	addi	a0,a5,8
    80001ade:	08080d63          	beq	a6,zero,80001b78 <_printf_i+0x164>
    80001ae2:	639c                	c.ld	a5,0(a5)
    80001ae4:	e308                	c.sd	a0,0(a4)
    80001ae6:	06f00713          	addi	a4,zero,111
    80001aea:	00001617          	auipc	a2,0x1
    80001aee:	12660613          	addi	a2,a2,294 # 80002c10 <__sf_fake_stdout+0x50>
    80001af2:	10e58463          	beq	a1,a4,80001bfa <_printf_i+0x1e6>
    80001af6:	4729                	c.li	a4,10
    80001af8:	040401a3          	sb	zero,67(s0)
    80001afc:	404c                	c.lw	a1,4(s0)
    80001afe:	c40c                	c.sw	a1,8(s0)
    80001b00:	0005c563          	blt	a1,zero,80001b0a <_printf_i+0xf6>
    80001b04:	4008                	c.lw	a0,0(s0)
    80001b06:	996d                	c.andi	a0,-5
    80001b08:	c008                	c.sw	a0,0(s0)
    80001b0a:	e399                	c.bnez	a5,80001b10 <_printf_i+0xfc>
    80001b0c:	84b6                	c.mv	s1,a3
    80001b0e:	cd99                	c.beqz	a1,80001b2c <_printf_i+0x118>
    80001b10:	84b6                	c.mv	s1,a3
    80001b12:	02e7f5b3          	remu	a1,a5,a4
    80001b16:	14fd                	c.addi	s1,-1
    80001b18:	95b2                	c.add	a1,a2
    80001b1a:	0005c583          	lbu	a1,0(a1)
    80001b1e:	00b48023          	sb	a1,0(s1)
    80001b22:	85be                	c.mv	a1,a5
    80001b24:	02e7d7b3          	divu	a5,a5,a4
    80001b28:	fee5f5e3          	bgeu	a1,a4,80001b12 <_printf_i+0xfe>
    80001b2c:	47a1                	c.li	a5,8
    80001b2e:	00f71e63          	bne	a4,a5,80001b4a <_printf_i+0x136>
    80001b32:	401c                	c.lw	a5,0(s0)
    80001b34:	8b85                	c.andi	a5,1
    80001b36:	cb91                	c.beqz	a5,80001b4a <_printf_i+0x136>
    80001b38:	4058                	c.lw	a4,4(s0)
    80001b3a:	481c                	c.lw	a5,16(s0)
    80001b3c:	00e7c763          	blt	a5,a4,80001b4a <_printf_i+0x136>
    80001b40:	03000793          	addi	a5,zero,48
    80001b44:	fef48fa3          	sb	a5,-1(s1)
    80001b48:	14fd                	c.addi	s1,-1
    80001b4a:	8e85                	c.sub	a3,s1
    80001b4c:	c814                	c.sw	a3,16(s0)
    80001b4e:	8752                	c.mv	a4,s4
    80001b50:	86ce                	c.mv	a3,s3
    80001b52:	0070                	c.addi4spn	a2,sp,12
    80001b54:	85a2                	c.mv	a1,s0
    80001b56:	854a                	c.mv	a0,s2
    80001b58:	d97ff0ef          	jal	ra,800018ee <_printf_common>
    80001b5c:	5afd                	c.li	s5,-1
    80001b5e:	0f551c63          	bne	a0,s5,80001c56 <_printf_i+0x242>
    80001b62:	557d                	c.li	a0,-1
    80001b64:	60a6                	c.ldsp	ra,72(sp)
    80001b66:	6406                	c.ldsp	s0,64(sp)
    80001b68:	74e2                	c.ldsp	s1,56(sp)
    80001b6a:	7942                	c.ldsp	s2,48(sp)
    80001b6c:	79a2                	c.ldsp	s3,40(sp)
    80001b6e:	7a02                	c.ldsp	s4,32(sp)
    80001b70:	6ae2                	c.ldsp	s5,24(sp)
    80001b72:	6b42                	c.ldsp	s6,16(sp)
    80001b74:	6161                	c.addi16sp	sp,80
    80001b76:	8082                	c.jr	ra
    80001b78:	439c                	c.lw	a5,0(a5)
    80001b7a:	04067613          	andi	a2,a2,64
    80001b7e:	e308                	c.sd	a0,0(a4)
    80001b80:	c601                	c.beqz	a2,80001b88 <_printf_i+0x174>
    80001b82:	17c2                	c.slli	a5,0x30
    80001b84:	93c1                	c.srli	a5,0x30
    80001b86:	b785                	c.j	80001ae6 <_printf_i+0xd2>
    80001b88:	1782                	c.slli	a5,0x20
    80001b8a:	9381                	c.srli	a5,0x20
    80001b8c:	bfa9                	c.j	80001ae6 <_printf_i+0xd2>
    80001b8e:	04b402a3          	sb	a1,69(s0)
    80001b92:	00001617          	auipc	a2,0x1
    80001b96:	07e60613          	addi	a2,a2,126 # 80002c10 <__sf_fake_stdout+0x50>
    80001b9a:	400c                	c.lw	a1,0(s0)
    80001b9c:	631c                	c.ld	a5,0(a4)
    80001b9e:	0805f813          	andi	a6,a1,128
    80001ba2:	00878513          	addi	a0,a5,8
    80001ba6:	02080e63          	beq	a6,zero,80001be2 <_printf_i+0x1ce>
    80001baa:	639c                	c.ld	a5,0(a5)
    80001bac:	e308                	c.sd	a0,0(a4)
    80001bae:	0015f713          	andi	a4,a1,1
    80001bb2:	c701                	c.beqz	a4,80001bba <_printf_i+0x1a6>
    80001bb4:	0205e593          	ori	a1,a1,32
    80001bb8:	c00c                	c.sw	a1,0(s0)
    80001bba:	4741                	c.li	a4,16
    80001bbc:	ff95                	c.bnez	a5,80001af8 <_printf_i+0xe4>
    80001bbe:	400c                	c.lw	a1,0(s0)
    80001bc0:	fdf5f593          	andi	a1,a1,-33
    80001bc4:	c00c                	c.sw	a1,0(s0)
    80001bc6:	bf0d                	c.j	80001af8 <_printf_i+0xe4>
    80001bc8:	401c                	c.lw	a5,0(s0)
    80001bca:	0a07e793          	ori	a5,a5,160
    80001bce:	c01c                	c.sw	a5,0(s0)
    80001bd0:	07800793          	addi	a5,zero,120
    80001bd4:	04f402a3          	sb	a5,69(s0)
    80001bd8:	00001617          	auipc	a2,0x1
    80001bdc:	05060613          	addi	a2,a2,80 # 80002c28 <__sf_fake_stdout+0x68>
    80001be0:	bf6d                	c.j	80001b9a <_printf_i+0x186>
    80001be2:	439c                	c.lw	a5,0(a5)
    80001be4:	0405f813          	andi	a6,a1,64
    80001be8:	e308                	c.sd	a0,0(a4)
    80001bea:	00080563          	beq	a6,zero,80001bf4 <_printf_i+0x1e0>
    80001bee:	17c2                	c.slli	a5,0x30
    80001bf0:	93c1                	c.srli	a5,0x30
    80001bf2:	bf75                	c.j	80001bae <_printf_i+0x19a>
    80001bf4:	1782                	c.slli	a5,0x20
    80001bf6:	9381                	c.srli	a5,0x20
    80001bf8:	bf5d                	c.j	80001bae <_printf_i+0x19a>
    80001bfa:	4721                	c.li	a4,8
    80001bfc:	bdf5                	c.j	80001af8 <_printf_i+0xe4>
    80001bfe:	4010                	c.lw	a2,0(s0)
    80001c00:	631c                	c.ld	a5,0(a4)
    80001c02:	484c                	c.lw	a1,20(s0)
    80001c04:	08067813          	andi	a6,a2,128
    80001c08:	00878513          	addi	a0,a5,8
    80001c0c:	00080963          	beq	a6,zero,80001c1e <_printf_i+0x20a>
    80001c10:	e308                	c.sd	a0,0(a4)
    80001c12:	639c                	c.ld	a5,0(a5)
    80001c14:	e38c                	c.sd	a1,0(a5)
    80001c16:	00042823          	sw	zero,16(s0)
    80001c1a:	84b6                	c.mv	s1,a3
    80001c1c:	bf0d                	c.j	80001b4e <_printf_i+0x13a>
    80001c1e:	e308                	c.sd	a0,0(a4)
    80001c20:	04067613          	andi	a2,a2,64
    80001c24:	639c                	c.ld	a5,0(a5)
    80001c26:	c601                	c.beqz	a2,80001c2e <_printf_i+0x21a>
    80001c28:	00b79023          	sh	a1,0(a5)
    80001c2c:	b7ed                	c.j	80001c16 <_printf_i+0x202>
    80001c2e:	c38c                	c.sw	a1,0(a5)
    80001c30:	b7dd                	c.j	80001c16 <_printf_i+0x202>
    80001c32:	631c                	c.ld	a5,0(a4)
    80001c34:	4050                	c.lw	a2,4(s0)
    80001c36:	4581                	c.li	a1,0
    80001c38:	00878693          	addi	a3,a5,8
    80001c3c:	e314                	c.sd	a3,0(a4)
    80001c3e:	6384                	c.ld	s1,0(a5)
    80001c40:	8526                	c.mv	a0,s1
    80001c42:	06f000ef          	jal	ra,800024b0 <memchr>
    80001c46:	c119                	c.beqz	a0,80001c4c <_printf_i+0x238>
    80001c48:	8d05                	c.sub	a0,s1
    80001c4a:	c048                	c.sw	a0,4(s0)
    80001c4c:	405c                	c.lw	a5,4(s0)
    80001c4e:	c81c                	c.sw	a5,16(s0)
    80001c50:	040401a3          	sb	zero,67(s0)
    80001c54:	bded                	c.j	80001b4e <_printf_i+0x13a>
    80001c56:	4814                	c.lw	a3,16(s0)
    80001c58:	8626                	c.mv	a2,s1
    80001c5a:	85ce                	c.mv	a1,s3
    80001c5c:	854a                	c.mv	a0,s2
    80001c5e:	9a02                	c.jalr	s4
    80001c60:	f15501e3          	beq	a0,s5,80001b62 <_printf_i+0x14e>
    80001c64:	401c                	c.lw	a5,0(s0)
    80001c66:	8b89                	c.andi	a5,2
    80001c68:	eb95                	c.bnez	a5,80001c9c <_printf_i+0x288>
    80001c6a:	47b2                	c.lwsp	a5,12(sp)
    80001c6c:	4448                	c.lw	a0,12(s0)
    80001c6e:	0007871b          	addiw	a4,a5,0
    80001c72:	0005069b          	addiw	a3,a0,0
    80001c76:	00e6d363          	bge	a3,a4,80001c7c <_printf_i+0x268>
    80001c7a:	853e                	c.mv	a0,a5
    80001c7c:	2501                	c.addiw	a0,0
    80001c7e:	b5dd                	c.j	80001b64 <_printf_i+0x150>
    80001c80:	4685                	c.li	a3,1
    80001c82:	8656                	c.mv	a2,s5
    80001c84:	85ce                	c.mv	a1,s3
    80001c86:	854a                	c.mv	a0,s2
    80001c88:	9a02                	c.jalr	s4
    80001c8a:	ed650ce3          	beq	a0,s6,80001b62 <_printf_i+0x14e>
    80001c8e:	2485                	c.addiw	s1,1
    80001c90:	445c                	c.lw	a5,12(s0)
    80001c92:	4732                	c.lwsp	a4,12(sp)
    80001c94:	9f99                	c.subw	a5,a4
    80001c96:	fef4c5e3          	blt	s1,a5,80001c80 <_printf_i+0x26c>
    80001c9a:	bfc1                	c.j	80001c6a <_printf_i+0x256>
    80001c9c:	4481                	c.li	s1,0
    80001c9e:	01940a93          	addi	s5,s0,25
    80001ca2:	5b7d                	c.li	s6,-1
    80001ca4:	b7f5                	c.j	80001c90 <_printf_i+0x27c>

0000000080001ca6 <__sfputc_r>:
    80001ca6:	465c                	c.lw	a5,12(a2)
    80001ca8:	37fd                	c.addiw	a5,-1
    80001caa:	c65c                	c.sw	a5,12(a2)
    80001cac:	02079693          	slli	a3,a5,0x20
    80001cb0:	0007871b          	addiw	a4,a5,0
    80001cb4:	0006da63          	bge	a3,zero,80001cc8 <__sfputc_r+0x22>
    80001cb8:	561c                	c.lw	a5,40(a2)
    80001cba:	00f74563          	blt	a4,a5,80001cc4 <__sfputc_r+0x1e>
    80001cbe:	47a9                	c.li	a5,10
    80001cc0:	00f59463          	bne	a1,a5,80001cc8 <__sfputc_r+0x22>
    80001cc4:	e2ffe06f          	jal	zero,80000af2 <__swbuf_r>
    80001cc8:	621c                	c.ld	a5,0(a2)
    80001cca:	852e                	c.mv	a0,a1
    80001ccc:	00178713          	addi	a4,a5,1
    80001cd0:	e218                	c.sd	a4,0(a2)
    80001cd2:	00b78023          	sb	a1,0(a5)
    80001cd6:	8082                	c.jr	ra

0000000080001cd8 <__sfputs_r>:
    80001cd8:	7179                	c.addi16sp	sp,-48
    80001cda:	f022                	c.sdsp	s0,32(sp)
    80001cdc:	ec26                	c.sdsp	s1,24(sp)
    80001cde:	e84a                	c.sdsp	s2,16(sp)
    80001ce0:	e44e                	c.sdsp	s3,8(sp)
    80001ce2:	e052                	c.sdsp	s4,0(sp)
    80001ce4:	f406                	c.sdsp	ra,40(sp)
    80001ce6:	892a                	c.mv	s2,a0
    80001ce8:	89ae                	c.mv	s3,a1
    80001cea:	8432                	c.mv	s0,a2
    80001cec:	00d604b3          	add	s1,a2,a3
    80001cf0:	5a7d                	c.li	s4,-1
    80001cf2:	00941463          	bne	s0,s1,80001cfa <__sfputs_r+0x22>
    80001cf6:	4501                	c.li	a0,0
    80001cf8:	a811                	c.j	80001d0c <__sfputs_r+0x34>
    80001cfa:	00044583          	lbu	a1,0(s0)
    80001cfe:	864e                	c.mv	a2,s3
    80001d00:	854a                	c.mv	a0,s2
    80001d02:	fa5ff0ef          	jal	ra,80001ca6 <__sfputc_r>
    80001d06:	0405                	c.addi	s0,1
    80001d08:	ff4515e3          	bne	a0,s4,80001cf2 <__sfputs_r+0x1a>
    80001d0c:	70a2                	c.ldsp	ra,40(sp)
    80001d0e:	7402                	c.ldsp	s0,32(sp)
    80001d10:	64e2                	c.ldsp	s1,24(sp)
    80001d12:	6942                	c.ldsp	s2,16(sp)
    80001d14:	69a2                	c.ldsp	s3,8(sp)
    80001d16:	6a02                	c.ldsp	s4,0(sp)
    80001d18:	6145                	c.addi16sp	sp,48
    80001d1a:	8082                	c.jr	ra

0000000080001d1c <__sprint_r>:
    80001d1c:	6a1c                	c.ld	a5,16(a2)
    80001d1e:	1141                	c.addi	sp,-16
    80001d20:	e022                	c.sdsp	s0,0(sp)
    80001d22:	e406                	c.sdsp	ra,8(sp)
    80001d24:	8432                	c.mv	s0,a2
    80001d26:	eb81                	c.bnez	a5,80001d36 <__sprint_r+0x1a>
    80001d28:	00062423          	sw	zero,8(a2)
    80001d2c:	4501                	c.li	a0,0
    80001d2e:	60a2                	c.ldsp	ra,8(sp)
    80001d30:	6402                	c.ldsp	s0,0(sp)
    80001d32:	0141                	c.addi	sp,16
    80001d34:	8082                	c.jr	ra
    80001d36:	43a000ef          	jal	ra,80002170 <__sfvwrite_r>
    80001d3a:	00043823          	sd	zero,16(s0)
    80001d3e:	00042423          	sw	zero,8(s0)
    80001d42:	b7f5                	c.j	80001d2e <__sprint_r+0x12>

0000000080001d44 <_vfiprintf_r>:
    80001d44:	7155                	c.addi16sp	sp,-208
    80001d46:	e1a2                	c.sdsp	s0,192(sp)
    80001d48:	fd26                	c.sdsp	s1,184(sp)
    80001d4a:	f94a                	c.sdsp	s2,176(sp)
    80001d4c:	f54e                	c.sdsp	s3,168(sp)
    80001d4e:	f152                	c.sdsp	s4,160(sp)
    80001d50:	e586                	c.sdsp	ra,200(sp)
    80001d52:	ed56                	c.sdsp	s5,152(sp)
    80001d54:	e95a                	c.sdsp	s6,144(sp)
    80001d56:	e55e                	c.sdsp	s7,136(sp)
    80001d58:	e162                	c.sdsp	s8,128(sp)
    80001d5a:	fce6                	c.sdsp	s9,120(sp)
    80001d5c:	f8ea                	c.sdsp	s10,112(sp)
    80001d5e:	89aa                	c.mv	s3,a0
    80001d60:	84ae                	c.mv	s1,a1
    80001d62:	8932                	c.mv	s2,a2
    80001d64:	8436                	c.mv	s0,a3
    80001d66:	4a01                	c.li	s4,0
    80001d68:	c509                	c.beqz	a0,80001d72 <_vfiprintf_r+0x2e>
    80001d6a:	591c                	c.lw	a5,48(a0)
    80001d6c:	e399                	c.bnez	a5,80001d72 <_vfiprintf_r+0x2e>
    80001d6e:	9f6ff0ef          	jal	ra,80000f64 <__sinit>
    80001d72:	00001797          	auipc	a5,0x1
    80001d76:	e1678793          	addi	a5,a5,-490 # 80002b88 <__sf_fake_stdin>
    80001d7a:	0cf49e63          	bne	s1,a5,80001e56 <_vfiprintf_r+0x112>
    80001d7e:	0089b483          	ld	s1,8(s3)
    80001d82:	0104d783          	lhu	a5,16(s1)
    80001d86:	8ba1                	c.andi	a5,8
    80001d88:	cbed                	c.beqz	a5,80001e7a <_vfiprintf_r+0x136>
    80001d8a:	6c9c                	c.ld	a5,24(s1)
    80001d8c:	c7fd                	c.beqz	a5,80001e7a <_vfiprintf_r+0x136>
    80001d8e:	02000793          	addi	a5,zero,32
    80001d92:	02f104a3          	sb	a5,41(sp)
    80001d96:	5afd                	c.li	s5,-1
    80001d98:	03000793          	addi	a5,zero,48
    80001d9c:	d202                	c.swsp	zero,36(sp)
    80001d9e:	02f10523          	sb	a5,42(sp)
    80001da2:	e422                	c.sdsp	s0,8(sp)
    80001da4:	02500b93          	addi	s7,zero,37
    80001da8:	020a9c13          	slli	s8,s5,0x20
    80001dac:	00001b17          	auipc	s6,0x1
    80001db0:	e4cb0b13          	addi	s6,s6,-436 # 80002bf8 <__sf_fake_stdout+0x38>
    80001db4:	4c85                	c.li	s9,1
    80001db6:	844a                	c.mv	s0,s2
    80001db8:	00044783          	lbu	a5,0(s0)
    80001dbc:	c399                	c.beqz	a5,80001dc2 <_vfiprintf_r+0x7e>
    80001dbe:	0f779263          	bne	a5,s7,80001ea2 <_vfiprintf_r+0x15e>
    80001dc2:	41240d3b          	subw	s10,s0,s2
    80001dc6:	000d0e63          	beq	s10,zero,80001de2 <_vfiprintf_r+0x9e>
    80001dca:	86ea                	c.mv	a3,s10
    80001dcc:	864a                	c.mv	a2,s2
    80001dce:	85a6                	c.mv	a1,s1
    80001dd0:	854e                	c.mv	a0,s3
    80001dd2:	f07ff0ef          	jal	ra,80001cd8 <__sfputs_r>
    80001dd6:	1f550d63          	beq	a0,s5,80001fd0 <_vfiprintf_r+0x28c>
    80001dda:	5792                	c.lwsp	a5,36(sp)
    80001ddc:	01a787bb          	addw	a5,a5,s10
    80001de0:	d23e                	c.swsp	a5,36(sp)
    80001de2:	00044783          	lbu	a5,0(s0)
    80001de6:	1e078563          	beq	a5,zero,80001fd0 <_vfiprintf_r+0x28c>
    80001dea:	00140913          	addi	s2,s0,1
    80001dee:	e862                	c.sdsp	s8,16(sp)
    80001df0:	ec02                	c.sdsp	zero,24(sp)
    80001df2:	040109a3          	sb	zero,83(sp)
    80001df6:	d482                	c.swsp	zero,104(sp)
    80001df8:	00094583          	lbu	a1,0(s2)
    80001dfc:	4615                	c.li	a2,5
    80001dfe:	855a                	c.mv	a0,s6
    80001e00:	6b0000ef          	jal	ra,800024b0 <memchr>
    80001e04:	00190413          	addi	s0,s2,1
    80001e08:	ed59                	c.bnez	a0,80001ea6 <_vfiprintf_r+0x162>
    80001e0a:	47c2                	c.lwsp	a5,16(sp)
    80001e0c:	0107f713          	andi	a4,a5,16
    80001e10:	c709                	c.beqz	a4,80001e1a <_vfiprintf_r+0xd6>
    80001e12:	02000713          	addi	a4,zero,32
    80001e16:	04e109a3          	sb	a4,83(sp)
    80001e1a:	0087f713          	andi	a4,a5,8
    80001e1e:	c709                	c.beqz	a4,80001e28 <_vfiprintf_r+0xe4>
    80001e20:	02b00713          	addi	a4,zero,43
    80001e24:	04e109a3          	sb	a4,83(sp)
    80001e28:	00094683          	lbu	a3,0(s2)
    80001e2c:	02a00713          	addi	a4,zero,42
    80001e30:	08e68463          	beq	a3,a4,80001eb8 <_vfiprintf_r+0x174>
    80001e34:	47f2                	c.lwsp	a5,28(sp)
    80001e36:	844a                	c.mv	s0,s2
    80001e38:	4681                	c.li	a3,0
    80001e3a:	4625                	c.li	a2,9
    80001e3c:	4829                	c.li	a6,10
    80001e3e:	00044703          	lbu	a4,0(s0)
    80001e42:	00140513          	addi	a0,s0,1
    80001e46:	fd07059b          	addiw	a1,a4,-48
    80001e4a:	872e                	c.mv	a4,a1
    80001e4c:	0ab67b63          	bgeu	a2,a1,80001f02 <_vfiprintf_r+0x1be>
    80001e50:	cea5                	c.beqz	a3,80001ec8 <_vfiprintf_r+0x184>
    80001e52:	ce3e                	c.swsp	a5,28(sp)
    80001e54:	a895                	c.j	80001ec8 <_vfiprintf_r+0x184>
    80001e56:	00001797          	auipc	a5,0x1
    80001e5a:	d6a78793          	addi	a5,a5,-662 # 80002bc0 <__sf_fake_stdout>
    80001e5e:	00f49563          	bne	s1,a5,80001e68 <_vfiprintf_r+0x124>
    80001e62:	0109b483          	ld	s1,16(s3)
    80001e66:	bf31                	c.j	80001d82 <_vfiprintf_r+0x3e>
    80001e68:	00001797          	auipc	a5,0x1
    80001e6c:	ce878793          	addi	a5,a5,-792 # 80002b50 <__sf_fake_stderr>
    80001e70:	f0f499e3          	bne	s1,a5,80001d82 <_vfiprintf_r+0x3e>
    80001e74:	0189b483          	ld	s1,24(s3)
    80001e78:	b729                	c.j	80001d82 <_vfiprintf_r+0x3e>
    80001e7a:	85a6                	c.mv	a1,s1
    80001e7c:	854e                	c.mv	a0,s3
    80001e7e:	d49fe0ef          	jal	ra,80000bc6 <__swsetup_r>
    80001e82:	d511                	c.beqz	a0,80001d8e <_vfiprintf_r+0x4a>
    80001e84:	557d                	c.li	a0,-1
    80001e86:	60ae                	c.ldsp	ra,200(sp)
    80001e88:	640e                	c.ldsp	s0,192(sp)
    80001e8a:	74ea                	c.ldsp	s1,184(sp)
    80001e8c:	794a                	c.ldsp	s2,176(sp)
    80001e8e:	79aa                	c.ldsp	s3,168(sp)
    80001e90:	7a0a                	c.ldsp	s4,160(sp)
    80001e92:	6aea                	c.ldsp	s5,152(sp)
    80001e94:	6b4a                	c.ldsp	s6,144(sp)
    80001e96:	6baa                	c.ldsp	s7,136(sp)
    80001e98:	6c0a                	c.ldsp	s8,128(sp)
    80001e9a:	7ce6                	c.ldsp	s9,120(sp)
    80001e9c:	7d46                	c.ldsp	s10,112(sp)
    80001e9e:	6169                	c.addi16sp	sp,208
    80001ea0:	8082                	c.jr	ra
    80001ea2:	0405                	c.addi	s0,1
    80001ea4:	bf11                	c.j	80001db8 <_vfiprintf_r+0x74>
    80001ea6:	47c2                	c.lwsp	a5,16(sp)
    80001ea8:	41650533          	sub	a0,a0,s6
    80001eac:	00ac953b          	sllw	a0,s9,a0
    80001eb0:	8d5d                	c.or	a0,a5
    80001eb2:	c82a                	c.swsp	a0,16(sp)
    80001eb4:	8922                	c.mv	s2,s0
    80001eb6:	b789                	c.j	80001df8 <_vfiprintf_r+0xb4>
    80001eb8:	6722                	c.ldsp	a4,8(sp)
    80001eba:	00870693          	addi	a3,a4,8
    80001ebe:	4318                	c.lw	a4,0(a4)
    80001ec0:	e436                	c.sdsp	a3,8(sp)
    80001ec2:	02074963          	blt	a4,zero,80001ef4 <_vfiprintf_r+0x1b0>
    80001ec6:	ce3a                	c.swsp	a4,28(sp)
    80001ec8:	00044703          	lbu	a4,0(s0)
    80001ecc:	02e00793          	addi	a5,zero,46
    80001ed0:	04f71063          	bne	a4,a5,80001f10 <_vfiprintf_r+0x1cc>
    80001ed4:	00144703          	lbu	a4,1(s0)
    80001ed8:	02a00793          	addi	a5,zero,42
    80001edc:	0af71263          	bne	a4,a5,80001f80 <_vfiprintf_r+0x23c>
    80001ee0:	67a2                	c.ldsp	a5,8(sp)
    80001ee2:	0409                	c.addi	s0,2
    80001ee4:	00878713          	addi	a4,a5,8
    80001ee8:	439c                	c.lw	a5,0(a5)
    80001eea:	e43a                	c.sdsp	a4,8(sp)
    80001eec:	0207c163          	blt	a5,zero,80001f0e <_vfiprintf_r+0x1ca>
    80001ef0:	ca3e                	c.swsp	a5,20(sp)
    80001ef2:	a839                	c.j	80001f10 <_vfiprintf_r+0x1cc>
    80001ef4:	40e0073b          	subw	a4,zero,a4
    80001ef8:	0027e793          	ori	a5,a5,2
    80001efc:	ce3a                	c.swsp	a4,28(sp)
    80001efe:	c83e                	c.swsp	a5,16(sp)
    80001f00:	b7e1                	c.j	80001ec8 <_vfiprintf_r+0x184>
    80001f02:	02f807bb          	mulw	a5,a6,a5
    80001f06:	842a                	c.mv	s0,a0
    80001f08:	4685                	c.li	a3,1
    80001f0a:	9fb9                	c.addw	a5,a4
    80001f0c:	bf0d                	c.j	80001e3e <_vfiprintf_r+0xfa>
    80001f0e:	ca56                	c.swsp	s5,20(sp)
    80001f10:	00044583          	lbu	a1,0(s0)
    80001f14:	460d                	c.li	a2,3
    80001f16:	00001517          	auipc	a0,0x1
    80001f1a:	cea50513          	addi	a0,a0,-790 # 80002c00 <__sf_fake_stdout+0x40>
    80001f1e:	592000ef          	jal	ra,800024b0 <memchr>
    80001f22:	cd11                	c.beqz	a0,80001f3e <_vfiprintf_r+0x1fa>
    80001f24:	00001797          	auipc	a5,0x1
    80001f28:	cdc78793          	addi	a5,a5,-804 # 80002c00 <__sf_fake_stdout+0x40>
    80001f2c:	8d1d                	c.sub	a0,a5
    80001f2e:	04000793          	addi	a5,zero,64
    80001f32:	00a7953b          	sllw	a0,a5,a0
    80001f36:	47c2                	c.lwsp	a5,16(sp)
    80001f38:	0405                	c.addi	s0,1
    80001f3a:	8d5d                	c.or	a0,a5
    80001f3c:	c82a                	c.swsp	a0,16(sp)
    80001f3e:	00044583          	lbu	a1,0(s0)
    80001f42:	4619                	c.li	a2,6
    80001f44:	00001517          	auipc	a0,0x1
    80001f48:	cc450513          	addi	a0,a0,-828 # 80002c08 <__sf_fake_stdout+0x48>
    80001f4c:	00140913          	addi	s2,s0,1
    80001f50:	02b10423          	sb	a1,40(sp)
    80001f54:	55c000ef          	jal	ra,800024b0 <memchr>
    80001f58:	c541                	c.beqz	a0,80001fe0 <_vfiprintf_r+0x29c>
    80001f5a:	000007b7          	lui	a5,0x0
    80001f5e:	00078793          	addi	a5,a5,0 # 0 <__boot_hart>
    80001f62:	eba1                	c.bnez	a5,80001fb2 <_vfiprintf_r+0x26e>
    80001f64:	4742                	c.lwsp	a4,16(sp)
    80001f66:	67a2                	c.ldsp	a5,8(sp)
    80001f68:	10077713          	andi	a4,a4,256
    80001f6c:	c329                	c.beqz	a4,80001fae <_vfiprintf_r+0x26a>
    80001f6e:	07bd                	c.addi	a5,15
    80001f70:	9bc1                	c.andi	a5,-16
    80001f72:	07c1                	c.addi	a5,16
    80001f74:	e43e                	c.sdsp	a5,8(sp)
    80001f76:	5792                	c.lwsp	a5,36(sp)
    80001f78:	014787bb          	addw	a5,a5,s4
    80001f7c:	d23e                	c.swsp	a5,36(sp)
    80001f7e:	bd25                	c.j	80001db6 <_vfiprintf_r+0x72>
    80001f80:	0405                	c.addi	s0,1
    80001f82:	ca02                	c.swsp	zero,20(sp)
    80001f84:	4681                	c.li	a3,0
    80001f86:	4781                	c.li	a5,0
    80001f88:	4625                	c.li	a2,9
    80001f8a:	4829                	c.li	a6,10
    80001f8c:	00044703          	lbu	a4,0(s0)
    80001f90:	00140513          	addi	a0,s0,1
    80001f94:	fd07059b          	addiw	a1,a4,-48
    80001f98:	872e                	c.mv	a4,a1
    80001f9a:	00b67463          	bgeu	a2,a1,80001fa2 <_vfiprintf_r+0x25e>
    80001f9e:	faa9                	c.bnez	a3,80001ef0 <_vfiprintf_r+0x1ac>
    80001fa0:	bf85                	c.j	80001f10 <_vfiprintf_r+0x1cc>
    80001fa2:	02f807bb          	mulw	a5,a6,a5
    80001fa6:	842a                	c.mv	s0,a0
    80001fa8:	4685                	c.li	a3,1
    80001faa:	9fb9                	c.addw	a5,a4
    80001fac:	b7c5                	c.j	80001f8c <_vfiprintf_r+0x248>
    80001fae:	07a1                	c.addi	a5,8
    80001fb0:	b7d1                	c.j	80001f74 <_vfiprintf_r+0x230>
    80001fb2:	0038                	c.addi4spn	a4,sp,8
    80001fb4:	00000697          	auipc	a3,0x0
    80001fb8:	d2468693          	addi	a3,a3,-732 # 80001cd8 <__sfputs_r>
    80001fbc:	8626                	c.mv	a2,s1
    80001fbe:	080c                	c.addi4spn	a1,sp,16
    80001fc0:	854e                	c.mv	a0,s3
    80001fc2:	00000097          	auipc	ra,0x0
    80001fc6:	000000e7          	jalr	ra,0(zero) # 0 <__boot_hart>
    80001fca:	8a2a                	c.mv	s4,a0
    80001fcc:	fb5515e3          	bne	a0,s5,80001f76 <_vfiprintf_r+0x232>
    80001fd0:	0104d783          	lhu	a5,16(s1)
    80001fd4:	0407f793          	andi	a5,a5,64
    80001fd8:	ea0796e3          	bne	a5,zero,80001e84 <_vfiprintf_r+0x140>
    80001fdc:	5512                	c.lwsp	a0,36(sp)
    80001fde:	b565                	c.j	80001e86 <_vfiprintf_r+0x142>
    80001fe0:	0038                	c.addi4spn	a4,sp,8
    80001fe2:	00000697          	auipc	a3,0x0
    80001fe6:	cf668693          	addi	a3,a3,-778 # 80001cd8 <__sfputs_r>
    80001fea:	8626                	c.mv	a2,s1
    80001fec:	080c                	c.addi4spn	a1,sp,16
    80001fee:	854e                	c.mv	a0,s3
    80001ff0:	a25ff0ef          	jal	ra,80001a14 <_printf_i>
    80001ff4:	bfd9                	c.j	80001fca <_vfiprintf_r+0x286>

0000000080001ff6 <vfiprintf>:
    80001ff6:	86b2                	c.mv	a3,a2
    80001ff8:	862e                	c.mv	a2,a1
    80001ffa:	85aa                	c.mv	a1,a0
    80001ffc:	00001517          	auipc	a0,0x1
    80002000:	e4453503          	ld	a0,-444(a0) # 80002e40 <_impure_ptr>
    80002004:	b381                	c.j	80001d44 <_vfiprintf_r>

0000000080002006 <_sbrk_r>:
    80002006:	1141                	c.addi	sp,-16
    80002008:	e022                	c.sdsp	s0,0(sp)
    8000200a:	842a                	c.mv	s0,a0
    8000200c:	852e                	c.mv	a0,a1
    8000200e:	9e01ac23          	sw	zero,-1544(gp) # 80003038 <errno>
    80002012:	e406                	c.sdsp	ra,8(sp)
    80002014:	722000ef          	jal	ra,80002736 <_sbrk>
    80002018:	57fd                	c.li	a5,-1
    8000201a:	00f51663          	bne	a0,a5,80002026 <_sbrk_r+0x20>
    8000201e:	9f81a783          	lw	a5,-1544(gp) # 80003038 <errno>
    80002022:	c391                	c.beqz	a5,80002026 <_sbrk_r+0x20>
    80002024:	c01c                	c.sw	a5,0(s0)
    80002026:	60a2                	c.ldsp	ra,8(sp)
    80002028:	6402                	c.ldsp	s0,0(sp)
    8000202a:	0141                	c.addi	sp,16
    8000202c:	8082                	c.jr	ra

000000008000202e <__sread>:
    8000202e:	1141                	c.addi	sp,-16
    80002030:	e022                	c.sdsp	s0,0(sp)
    80002032:	842e                	c.mv	s0,a1
    80002034:	01259583          	lh	a1,18(a1)
    80002038:	e406                	c.sdsp	ra,8(sp)
    8000203a:	536000ef          	jal	ra,80002570 <_read_r>
    8000203e:	00054963          	blt	a0,zero,80002050 <__sread+0x22>
    80002042:	6c5c                	c.ld	a5,152(s0)
    80002044:	97aa                	c.add	a5,a0
    80002046:	ec5c                	c.sd	a5,152(s0)
    80002048:	60a2                	c.ldsp	ra,8(sp)
    8000204a:	6402                	c.ldsp	s0,0(sp)
    8000204c:	0141                	c.addi	sp,16
    8000204e:	8082                	c.jr	ra
    80002050:	01045783          	lhu	a5,16(s0)
    80002054:	777d                	c.lui	a4,0xfffff
    80002056:	177d                	c.addi	a4,-1
    80002058:	8ff9                	c.and	a5,a4
    8000205a:	00f41823          	sh	a5,16(s0)
    8000205e:	b7ed                	c.j	80002048 <__sread+0x1a>

0000000080002060 <__seofread>:
    80002060:	4501                	c.li	a0,0
    80002062:	8082                	c.jr	ra

0000000080002064 <__swrite>:
    80002064:	0105d783          	lhu	a5,16(a1)
    80002068:	7179                	c.addi16sp	sp,-48
    8000206a:	f022                	c.sdsp	s0,32(sp)
    8000206c:	ec26                	c.sdsp	s1,24(sp)
    8000206e:	e84a                	c.sdsp	s2,16(sp)
    80002070:	e44e                	c.sdsp	s3,8(sp)
    80002072:	f406                	c.sdsp	ra,40(sp)
    80002074:	1007f793          	andi	a5,a5,256
    80002078:	84aa                	c.mv	s1,a0
    8000207a:	842e                	c.mv	s0,a1
    8000207c:	8932                	c.mv	s2,a2
    8000207e:	89b6                	c.mv	s3,a3
    80002080:	c799                	c.beqz	a5,8000208e <__swrite+0x2a>
    80002082:	01259583          	lh	a1,18(a1)
    80002086:	4689                	c.li	a3,2
    80002088:	4601                	c.li	a2,0
    8000208a:	3fa000ef          	jal	ra,80002484 <_lseek_r>
    8000208e:	01045783          	lhu	a5,16(s0)
    80002092:	777d                	c.lui	a4,0xfffff
    80002094:	177d                	c.addi	a4,-1
    80002096:	8ff9                	c.and	a5,a4
    80002098:	01241583          	lh	a1,18(s0)
    8000209c:	00f41823          	sh	a5,16(s0)
    800020a0:	7402                	c.ldsp	s0,32(sp)
    800020a2:	70a2                	c.ldsp	ra,40(sp)
    800020a4:	86ce                	c.mv	a3,s3
    800020a6:	864a                	c.mv	a2,s2
    800020a8:	69a2                	c.ldsp	s3,8(sp)
    800020aa:	6942                	c.ldsp	s2,16(sp)
    800020ac:	8526                	c.mv	a0,s1
    800020ae:	64e2                	c.ldsp	s1,24(sp)
    800020b0:	6145                	c.addi16sp	sp,48
    800020b2:	a081                	c.j	800020f2 <_write_r>

00000000800020b4 <__sseek>:
    800020b4:	1141                	c.addi	sp,-16
    800020b6:	e022                	c.sdsp	s0,0(sp)
    800020b8:	842e                	c.mv	s0,a1
    800020ba:	01259583          	lh	a1,18(a1)
    800020be:	e406                	c.sdsp	ra,8(sp)
    800020c0:	3c4000ef          	jal	ra,80002484 <_lseek_r>
    800020c4:	57fd                	c.li	a5,-1
    800020c6:	01045703          	lhu	a4,16(s0)
    800020ca:	00f51b63          	bne	a0,a5,800020e0 <__sseek+0x2c>
    800020ce:	77fd                	c.lui	a5,0xfffff
    800020d0:	17fd                	c.addi	a5,-1
    800020d2:	8ff9                	c.and	a5,a4
    800020d4:	00f41823          	sh	a5,16(s0)
    800020d8:	60a2                	c.ldsp	ra,8(sp)
    800020da:	6402                	c.ldsp	s0,0(sp)
    800020dc:	0141                	c.addi	sp,16
    800020de:	8082                	c.jr	ra
    800020e0:	6785                	c.lui	a5,0x1
    800020e2:	8fd9                	c.or	a5,a4
    800020e4:	00f41823          	sh	a5,16(s0)
    800020e8:	ec48                	c.sd	a0,152(s0)
    800020ea:	b7fd                	c.j	800020d8 <__sseek+0x24>

00000000800020ec <__sclose>:
    800020ec:	01259583          	lh	a1,18(a1)
    800020f0:	a03d                	c.j	8000211e <_close_r>

00000000800020f2 <_write_r>:
    800020f2:	1141                	c.addi	sp,-16
    800020f4:	e022                	c.sdsp	s0,0(sp)
    800020f6:	842a                	c.mv	s0,a0
    800020f8:	852e                	c.mv	a0,a1
    800020fa:	85b2                	c.mv	a1,a2
    800020fc:	8636                	c.mv	a2,a3
    800020fe:	9e01ac23          	sw	zero,-1544(gp) # 80003038 <errno>
    80002102:	e406                	c.sdsp	ra,8(sp)
    80002104:	66e000ef          	jal	ra,80002772 <_write>
    80002108:	57fd                	c.li	a5,-1
    8000210a:	00f51663          	bne	a0,a5,80002116 <_write_r+0x24>
    8000210e:	9f81a783          	lw	a5,-1544(gp) # 80003038 <errno>
    80002112:	c391                	c.beqz	a5,80002116 <_write_r+0x24>
    80002114:	c01c                	c.sw	a5,0(s0)
    80002116:	60a2                	c.ldsp	ra,8(sp)
    80002118:	6402                	c.ldsp	s0,0(sp)
    8000211a:	0141                	c.addi	sp,16
    8000211c:	8082                	c.jr	ra

000000008000211e <_close_r>:
    8000211e:	1141                	c.addi	sp,-16
    80002120:	e022                	c.sdsp	s0,0(sp)
    80002122:	842a                	c.mv	s0,a0
    80002124:	852e                	c.mv	a0,a1
    80002126:	9e01ac23          	sw	zero,-1544(gp) # 80003038 <errno>
    8000212a:	e406                	c.sdsp	ra,8(sp)
    8000212c:	58e000ef          	jal	ra,800026ba <_close>
    80002130:	57fd                	c.li	a5,-1
    80002132:	00f51663          	bne	a0,a5,8000213e <_close_r+0x20>
    80002136:	9f81a783          	lw	a5,-1544(gp) # 80003038 <errno>
    8000213a:	c391                	c.beqz	a5,8000213e <_close_r+0x20>
    8000213c:	c01c                	c.sw	a5,0(s0)
    8000213e:	60a2                	c.ldsp	ra,8(sp)
    80002140:	6402                	c.ldsp	s0,0(sp)
    80002142:	0141                	c.addi	sp,16
    80002144:	8082                	c.jr	ra

0000000080002146 <_fstat_r>:
    80002146:	1141                	c.addi	sp,-16
    80002148:	e022                	c.sdsp	s0,0(sp)
    8000214a:	842a                	c.mv	s0,a0
    8000214c:	852e                	c.mv	a0,a1
    8000214e:	85b2                	c.mv	a1,a2
    80002150:	9e01ac23          	sw	zero,-1544(gp) # 80003038 <errno>
    80002154:	e406                	c.sdsp	ra,8(sp)
    80002156:	59a000ef          	jal	ra,800026f0 <_fstat>
    8000215a:	57fd                	c.li	a5,-1
    8000215c:	00f51663          	bne	a0,a5,80002168 <_fstat_r+0x22>
    80002160:	9f81a783          	lw	a5,-1544(gp) # 80003038 <errno>
    80002164:	c391                	c.beqz	a5,80002168 <_fstat_r+0x22>
    80002166:	c01c                	c.sw	a5,0(s0)
    80002168:	60a2                	c.ldsp	ra,8(sp)
    8000216a:	6402                	c.ldsp	s0,0(sp)
    8000216c:	0141                	c.addi	sp,16
    8000216e:	8082                	c.jr	ra

0000000080002170 <__sfvwrite_r>:
    80002170:	6a1c                	c.ld	a5,16(a2)
    80002172:	e781                	c.bnez	a5,8000217a <__sfvwrite_r+0xa>
    80002174:	4781                	c.li	a5,0
    80002176:	853e                	c.mv	a0,a5
    80002178:	8082                	c.jr	ra
    8000217a:	0105d783          	lhu	a5,16(a1)
    8000217e:	7119                	c.addi16sp	sp,-128
    80002180:	f8a2                	c.sdsp	s0,112(sp)
    80002182:	f0ca                	c.sdsp	s2,96(sp)
    80002184:	e8d2                	c.sdsp	s4,80(sp)
    80002186:	fc86                	c.sdsp	ra,120(sp)
    80002188:	f4a6                	c.sdsp	s1,104(sp)
    8000218a:	ecce                	c.sdsp	s3,88(sp)
    8000218c:	e4d6                	c.sdsp	s5,72(sp)
    8000218e:	e0da                	c.sdsp	s6,64(sp)
    80002190:	fc5e                	c.sdsp	s7,56(sp)
    80002192:	f862                	c.sdsp	s8,48(sp)
    80002194:	f466                	c.sdsp	s9,40(sp)
    80002196:	f06a                	c.sdsp	s10,32(sp)
    80002198:	ec6e                	c.sdsp	s11,24(sp)
    8000219a:	8ba1                	c.andi	a5,8
    8000219c:	892a                	c.mv	s2,a0
    8000219e:	842e                	c.mv	s0,a1
    800021a0:	8a32                	c.mv	s4,a2
    800021a2:	cfd1                	c.beqz	a5,8000223e <__sfvwrite_r+0xce>
    800021a4:	6d9c                	c.ld	a5,24(a1)
    800021a6:	cfc1                	c.beqz	a5,8000223e <__sfvwrite_r+0xce>
    800021a8:	01045783          	lhu	a5,16(s0)
    800021ac:	000a3983          	ld	s3,0(s4)
    800021b0:	0027f713          	andi	a4,a5,2
    800021b4:	0e071863          	bne	a4,zero,800022a4 <__sfvwrite_r+0x134>
    800021b8:	8b85                	c.andi	a5,1
    800021ba:	4a81                	c.li	s5,0
    800021bc:	16078463          	beq	a5,zero,80002324 <__sfvwrite_r+0x1b4>
    800021c0:	4501                	c.li	a0,0
    800021c2:	4b81                	c.li	s7,0
    800021c4:	4b01                	c.li	s6,0
    800021c6:	240b0963          	beq	s6,zero,80002418 <__sfvwrite_r+0x2a8>
    800021ca:	e919                	c.bnez	a0,800021e0 <__sfvwrite_r+0x70>
    800021cc:	865a                	c.mv	a2,s6
    800021ce:	45a9                	c.li	a1,10
    800021d0:	855e                	c.mv	a0,s7
    800021d2:	2de000ef          	jal	ra,800024b0 <memchr>
    800021d6:	24050863          	beq	a0,zero,80002426 <__sfvwrite_r+0x2b6>
    800021da:	0505                	c.addi	a0,1
    800021dc:	41750abb          	subw	s5,a0,s7
    800021e0:	8c56                	c.mv	s8,s5
    800021e2:	015b7363          	bgeu	s6,s5,800021e8 <__sfvwrite_r+0x78>
    800021e6:	8c5a                	c.mv	s8,s6
    800021e8:	6008                	c.ld	a0,0(s0)
    800021ea:	6c1c                	c.ld	a5,24(s0)
    800021ec:	5014                	c.lw	a3,32(s0)
    800021ee:	22a7ff63          	bgeu	a5,a0,8000242c <__sfvwrite_r+0x2bc>
    800021f2:	4444                	c.lw	s1,12(s0)
    800021f4:	9cb5                	c.addw	s1,a3
    800021f6:	2384db63          	bge	s1,s8,8000242c <__sfvwrite_r+0x2bc>
    800021fa:	85de                	c.mv	a1,s7
    800021fc:	8626                	c.mv	a2,s1
    800021fe:	2e2000ef          	jal	ra,800024e0 <memmove>
    80002202:	601c                	c.ld	a5,0(s0)
    80002204:	85a2                	c.mv	a1,s0
    80002206:	854a                	c.mv	a0,s2
    80002208:	97a6                	c.add	a5,s1
    8000220a:	e01c                	c.sd	a5,0(s0)
    8000220c:	c09fe0ef          	jal	ra,80000e14 <_fflush_r>
    80002210:	10051263          	bne	a0,zero,80002314 <__sfvwrite_r+0x1a4>
    80002214:	409a8abb          	subw	s5,s5,s1
    80002218:	4505                	c.li	a0,1
    8000221a:	000a9763          	bne	s5,zero,80002228 <__sfvwrite_r+0xb8>
    8000221e:	85a2                	c.mv	a1,s0
    80002220:	854a                	c.mv	a0,s2
    80002222:	bf3fe0ef          	jal	ra,80000e14 <_fflush_r>
    80002226:	e57d                	c.bnez	a0,80002314 <__sfvwrite_r+0x1a4>
    80002228:	010a3603          	ld	a2,16(s4)
    8000222c:	9ba6                	c.add	s7,s1
    8000222e:	409b0b33          	sub	s6,s6,s1
    80002232:	409604b3          	sub	s1,a2,s1
    80002236:	009a3823          	sd	s1,16(s4)
    8000223a:	f4d1                	c.bnez	s1,800021c6 <__sfvwrite_r+0x56>
    8000223c:	a099                	c.j	80002282 <__sfvwrite_r+0x112>
    8000223e:	85a2                	c.mv	a1,s0
    80002240:	854a                	c.mv	a0,s2
    80002242:	985fe0ef          	jal	ra,80000bc6 <__swsetup_r>
    80002246:	57fd                	c.li	a5,-1
    80002248:	d125                	c.beqz	a0,800021a8 <__sfvwrite_r+0x38>
    8000224a:	a82d                	c.j	80002284 <__sfvwrite_r+0x114>
    8000224c:	0009ba83          	ld	s5,0(s3)
    80002250:	0089b483          	ld	s1,8(s3)
    80002254:	09c1                	c.addi	s3,16
    80002256:	d8fd                	c.beqz	s1,8000224c <__sfvwrite_r+0xdc>
    80002258:	86a6                	c.mv	a3,s1
    8000225a:	009b7363          	bgeu	s6,s1,80002260 <__sfvwrite_r+0xf0>
    8000225e:	86da                	c.mv	a3,s6
    80002260:	643c                	c.ld	a5,72(s0)
    80002262:	7c0c                	c.ld	a1,56(s0)
    80002264:	2681                	c.addiw	a3,0
    80002266:	8656                	c.mv	a2,s5
    80002268:	854a                	c.mv	a0,s2
    8000226a:	9782                	c.jalr	a5
    8000226c:	0aa05463          	bge	zero,a0,80002314 <__sfvwrite_r+0x1a4>
    80002270:	010a3783          	ld	a5,16(s4)
    80002274:	9aaa                	c.add	s5,a0
    80002276:	8c89                	c.sub	s1,a0
    80002278:	40a78533          	sub	a0,a5,a0
    8000227c:	00aa3823          	sd	a0,16(s4)
    80002280:	f979                	c.bnez	a0,80002256 <__sfvwrite_r+0xe6>
    80002282:	4781                	c.li	a5,0
    80002284:	70e6                	c.ldsp	ra,120(sp)
    80002286:	7446                	c.ldsp	s0,112(sp)
    80002288:	74a6                	c.ldsp	s1,104(sp)
    8000228a:	7906                	c.ldsp	s2,96(sp)
    8000228c:	69e6                	c.ldsp	s3,88(sp)
    8000228e:	6a46                	c.ldsp	s4,80(sp)
    80002290:	6aa6                	c.ldsp	s5,72(sp)
    80002292:	6b06                	c.ldsp	s6,64(sp)
    80002294:	7be2                	c.ldsp	s7,56(sp)
    80002296:	7c42                	c.ldsp	s8,48(sp)
    80002298:	7ca2                	c.ldsp	s9,40(sp)
    8000229a:	7d02                	c.ldsp	s10,32(sp)
    8000229c:	6de2                	c.ldsp	s11,24(sp)
    8000229e:	853e                	c.mv	a0,a5
    800022a0:	6109                	c.addi16sp	sp,128
    800022a2:	8082                	c.jr	ra
    800022a4:	80000b37          	lui	s6,0x80000
    800022a8:	4a81                	c.li	s5,0
    800022aa:	4481                	c.li	s1,0
    800022ac:	c00b4b13          	xori	s6,s6,-1024
    800022b0:	b75d                	c.j	80002256 <__sfvwrite_r+0xe6>
    800022b2:	0009ba83          	ld	s5,0(s3)
    800022b6:	0089bd03          	ld	s10,8(s3)
    800022ba:	09c1                	c.addi	s3,16
    800022bc:	4444                	c.lw	s1,12(s0)
    800022be:	8626                	c.mv	a2,s1
    800022c0:	fe0d09e3          	beq	s10,zero,800022b2 <__sfvwrite_r+0x142>
    800022c4:	01045703          	lhu	a4,16(s0)
    800022c8:	6008                	c.ld	a0,0(s0)
    800022ca:	20077793          	andi	a5,a4,512
    800022ce:	c7ed                	c.beqz	a5,800023b8 <__sfvwrite_r+0x248>
    800022d0:	089d6863          	bltu	s10,s1,80002360 <__sfvwrite_r+0x1f0>
    800022d4:	48077793          	andi	a5,a4,1152
    800022d8:	c7c1                	c.beqz	a5,80002360 <__sfvwrite_r+0x1f0>
    800022da:	501c                	c.lw	a5,32(s0)
    800022dc:	6c0c                	c.ld	a1,24(s0)
    800022de:	02fc07bb          	mulw	a5,s8,a5
    800022e2:	8d0d                	c.sub	a0,a1
    800022e4:	00050d9b          	addiw	s11,a0,0
    800022e8:	001d8693          	addi	a3,s11,1
    800022ec:	96ea                	c.add	a3,s10
    800022ee:	0397cbbb          	divw	s7,a5,s9
    800022f2:	00dbf563          	bgeu	s7,a3,800022fc <__sfvwrite_r+0x18c>
    800022f6:	2505                	c.addiw	a0,1
    800022f8:	01a50bbb          	addw	s7,a0,s10
    800022fc:	40077713          	andi	a4,a4,1024
    80002300:	cb59                	c.beqz	a4,80002396 <__sfvwrite_r+0x226>
    80002302:	85de                	c.mv	a1,s7
    80002304:	854a                	c.mv	a0,s2
    80002306:	83aff0ef          	jal	ra,80001340 <_malloc_r>
    8000230a:	84aa                	c.mv	s1,a0
    8000230c:	e505                	c.bnez	a0,80002334 <__sfvwrite_r+0x1c4>
    8000230e:	47b1                	c.li	a5,12
    80002310:	00f92023          	sw	a5,0(s2)
    80002314:	01045783          	lhu	a5,16(s0)
    80002318:	0407e793          	ori	a5,a5,64
    8000231c:	00f41823          	sh	a5,16(s0)
    80002320:	57fd                	c.li	a5,-1
    80002322:	b78d                	c.j	80002284 <__sfvwrite_r+0x114>
    80002324:	80000b37          	lui	s6,0x80000
    80002328:	4d01                	c.li	s10,0
    8000232a:	fffb4b13          	xori	s6,s6,-1
    8000232e:	4c0d                	c.li	s8,3
    80002330:	4c89                	c.li	s9,2
    80002332:	b769                	c.j	800022bc <__sfvwrite_r+0x14c>
    80002334:	6c0c                	c.ld	a1,24(s0)
    80002336:	866e                	c.mv	a2,s11
    80002338:	192000ef          	jal	ra,800024ca <memcpy>
    8000233c:	01045703          	lhu	a4,16(s0)
    80002340:	b7f77713          	andi	a4,a4,-1153
    80002344:	08076713          	ori	a4,a4,128
    80002348:	00e41823          	sh	a4,16(s0)
    8000234c:	ec04                	c.sd	s1,24(s0)
    8000234e:	94ee                	c.add	s1,s11
    80002350:	41bb8dbb          	subw	s11,s7,s11
    80002354:	e004                	c.sd	s1,0(s0)
    80002356:	03742023          	sw	s7,32(s0)
    8000235a:	866a                	c.mv	a2,s10
    8000235c:	01b42623          	sw	s11,12(s0)
    80002360:	84ea                	c.mv	s1,s10
    80002362:	00cd7363          	bgeu	s10,a2,80002368 <__sfvwrite_r+0x1f8>
    80002366:	866a                	c.mv	a2,s10
    80002368:	6008                	c.ld	a0,0(s0)
    8000236a:	85d6                	c.mv	a1,s5
    8000236c:	e432                	c.sdsp	a2,8(sp)
    8000236e:	172000ef          	jal	ra,800024e0 <memmove>
    80002372:	445c                	c.lw	a5,12(s0)
    80002374:	6622                	c.ldsp	a2,8(sp)
    80002376:	9f91                	c.subw	a5,a2
    80002378:	c45c                	c.sw	a5,12(s0)
    8000237a:	601c                	c.ld	a5,0(s0)
    8000237c:	963e                	c.add	a2,a5
    8000237e:	e010                	c.sd	a2,0(s0)
    80002380:	010a3503          	ld	a0,16(s4)
    80002384:	9aa6                	c.add	s5,s1
    80002386:	409d0d33          	sub	s10,s10,s1
    8000238a:	409504b3          	sub	s1,a0,s1
    8000238e:	009a3823          	sd	s1,16(s4)
    80002392:	f48d                	c.bnez	s1,800022bc <__sfvwrite_r+0x14c>
    80002394:	b5fd                	c.j	80002282 <__sfvwrite_r+0x112>
    80002396:	865e                	c.mv	a2,s7
    80002398:	854a                	c.mv	a0,s2
    8000239a:	170000ef          	jal	ra,8000250a <_realloc_r>
    8000239e:	84aa                	c.mv	s1,a0
    800023a0:	f555                	c.bnez	a0,8000234c <__sfvwrite_r+0x1dc>
    800023a2:	6c0c                	c.ld	a1,24(s0)
    800023a4:	854a                	c.mv	a0,s2
    800023a6:	ef5fe0ef          	jal	ra,8000129a <_free_r>
    800023aa:	01045783          	lhu	a5,16(s0)
    800023ae:	f7f7f793          	andi	a5,a5,-129
    800023b2:	00f41823          	sh	a5,16(s0)
    800023b6:	bfa1                	c.j	8000230e <__sfvwrite_r+0x19e>
    800023b8:	6c1c                	c.ld	a5,24(s0)
    800023ba:	00a7e563          	bltu	a5,a0,800023c4 <__sfvwrite_r+0x254>
    800023be:	5014                	c.lw	a3,32(s0)
    800023c0:	02dd7763          	bgeu	s10,a3,800023ee <__sfvwrite_r+0x27e>
    800023c4:	009d7363          	bgeu	s10,s1,800023ca <__sfvwrite_r+0x25a>
    800023c8:	84ea                	c.mv	s1,s10
    800023ca:	8626                	c.mv	a2,s1
    800023cc:	85d6                	c.mv	a1,s5
    800023ce:	112000ef          	jal	ra,800024e0 <memmove>
    800023d2:	445c                	c.lw	a5,12(s0)
    800023d4:	4097873b          	subw	a4,a5,s1
    800023d8:	601c                	c.ld	a5,0(s0)
    800023da:	c458                	c.sw	a4,12(s0)
    800023dc:	97a6                	c.add	a5,s1
    800023de:	e01c                	c.sd	a5,0(s0)
    800023e0:	f345                	c.bnez	a4,80002380 <__sfvwrite_r+0x210>
    800023e2:	85a2                	c.mv	a1,s0
    800023e4:	854a                	c.mv	a0,s2
    800023e6:	a2ffe0ef          	jal	ra,80000e14 <_fflush_r>
    800023ea:	d959                	c.beqz	a0,80002380 <__sfvwrite_r+0x210>
    800023ec:	b725                	c.j	80002314 <__sfvwrite_r+0x1a4>
    800023ee:	80000737          	lui	a4,0x80000
    800023f2:	ffe74713          	xori	a4,a4,-2
    800023f6:	87da                	c.mv	a5,s6
    800023f8:	01a76363          	bltu	a4,s10,800023fe <__sfvwrite_r+0x28e>
    800023fc:	87ea                	c.mv	a5,s10
    800023fe:	02d7c7bb          	divw	a5,a5,a3
    80002402:	6438                	c.ld	a4,72(s0)
    80002404:	7c0c                	c.ld	a1,56(s0)
    80002406:	8656                	c.mv	a2,s5
    80002408:	854a                	c.mv	a0,s2
    8000240a:	02d786bb          	mulw	a3,a5,a3
    8000240e:	9702                	c.jalr	a4
    80002410:	84aa                	c.mv	s1,a0
    80002412:	f6a047e3          	blt	zero,a0,80002380 <__sfvwrite_r+0x210>
    80002416:	bdfd                	c.j	80002314 <__sfvwrite_r+0x1a4>
    80002418:	0009bb83          	ld	s7,0(s3)
    8000241c:	0089bb03          	ld	s6,8(s3)
    80002420:	4501                	c.li	a0,0
    80002422:	09c1                	c.addi	s3,16
    80002424:	b34d                	c.j	800021c6 <__sfvwrite_r+0x56>
    80002426:	001b0a9b          	addiw	s5,s6,1
    8000242a:	bb5d                	c.j	800021e0 <__sfvwrite_r+0x70>
    8000242c:	00dc4b63          	blt	s8,a3,80002442 <__sfvwrite_r+0x2d2>
    80002430:	643c                	c.ld	a5,72(s0)
    80002432:	7c0c                	c.ld	a1,56(s0)
    80002434:	865e                	c.mv	a2,s7
    80002436:	854a                	c.mv	a0,s2
    80002438:	9782                	c.jalr	a5
    8000243a:	84aa                	c.mv	s1,a0
    8000243c:	dca04ce3          	blt	zero,a0,80002214 <__sfvwrite_r+0xa4>
    80002440:	bdd1                	c.j	80002314 <__sfvwrite_r+0x1a4>
    80002442:	8662                	c.mv	a2,s8
    80002444:	85de                	c.mv	a1,s7
    80002446:	09a000ef          	jal	ra,800024e0 <memmove>
    8000244a:	445c                	c.lw	a5,12(s0)
    8000244c:	84e2                	c.mv	s1,s8
    8000244e:	418787bb          	subw	a5,a5,s8
    80002452:	c45c                	c.sw	a5,12(s0)
    80002454:	601c                	c.ld	a5,0(s0)
    80002456:	97e2                	c.add	a5,s8
    80002458:	e01c                	c.sd	a5,0(s0)
    8000245a:	bb6d                	c.j	80002214 <__sfvwrite_r+0xa4>

000000008000245c <_isatty_r>:
    8000245c:	1141                	c.addi	sp,-16
    8000245e:	e022                	c.sdsp	s0,0(sp)
    80002460:	842a                	c.mv	s0,a0
    80002462:	852e                	c.mv	a0,a1
    80002464:	9e01ac23          	sw	zero,-1544(gp) # 80003038 <errno>
    80002468:	e406                	c.sdsp	ra,8(sp)
    8000246a:	29a000ef          	jal	ra,80002704 <_isatty>
    8000246e:	57fd                	c.li	a5,-1
    80002470:	00f51663          	bne	a0,a5,8000247c <_isatty_r+0x20>
    80002474:	9f81a783          	lw	a5,-1544(gp) # 80003038 <errno>
    80002478:	c391                	c.beqz	a5,8000247c <_isatty_r+0x20>
    8000247a:	c01c                	c.sw	a5,0(s0)
    8000247c:	60a2                	c.ldsp	ra,8(sp)
    8000247e:	6402                	c.ldsp	s0,0(sp)
    80002480:	0141                	c.addi	sp,16
    80002482:	8082                	c.jr	ra

0000000080002484 <_lseek_r>:
    80002484:	1141                	c.addi	sp,-16
    80002486:	e022                	c.sdsp	s0,0(sp)
    80002488:	842a                	c.mv	s0,a0
    8000248a:	852e                	c.mv	a0,a1
    8000248c:	85b2                	c.mv	a1,a2
    8000248e:	8636                	c.mv	a2,a3
    80002490:	9e01ac23          	sw	zero,-1544(gp) # 80003038 <errno>
    80002494:	e406                	c.sdsp	ra,8(sp)
    80002496:	276000ef          	jal	ra,8000270c <_lseek>
    8000249a:	57fd                	c.li	a5,-1
    8000249c:	00f51663          	bne	a0,a5,800024a8 <_lseek_r+0x24>
    800024a0:	9f81a783          	lw	a5,-1544(gp) # 80003038 <errno>
    800024a4:	c391                	c.beqz	a5,800024a8 <_lseek_r+0x24>
    800024a6:	c01c                	c.sw	a5,0(s0)
    800024a8:	60a2                	c.ldsp	ra,8(sp)
    800024aa:	6402                	c.ldsp	s0,0(sp)
    800024ac:	0141                	c.addi	sp,16
    800024ae:	8082                	c.jr	ra

00000000800024b0 <memchr>:
    800024b0:	0ff5f593          	andi	a1,a1,255
    800024b4:	962a                	c.add	a2,a0
    800024b6:	00c51463          	bne	a0,a2,800024be <memchr+0xe>
    800024ba:	4501                	c.li	a0,0
    800024bc:	8082                	c.jr	ra
    800024be:	00054783          	lbu	a5,0(a0)
    800024c2:	feb78de3          	beq	a5,a1,800024bc <memchr+0xc>
    800024c6:	0505                	c.addi	a0,1
    800024c8:	b7fd                	c.j	800024b6 <memchr+0x6>

00000000800024ca <memcpy>:
    800024ca:	832a                	c.mv	t1,a0
    800024cc:	ca09                	c.beqz	a2,800024de <memcpy+0x14>
    800024ce:	00058383          	lb	t2,0(a1)
    800024d2:	00730023          	sb	t2,0(t1)
    800024d6:	167d                	c.addi	a2,-1
    800024d8:	0305                	c.addi	t1,1
    800024da:	0585                	c.addi	a1,1
    800024dc:	fa6d                	c.bnez	a2,800024ce <memcpy+0x4>
    800024de:	8082                	c.jr	ra

00000000800024e0 <memmove>:
    800024e0:	c215                	c.beqz	a2,80002504 <memmove+0x24>
    800024e2:	832a                	c.mv	t1,a0
    800024e4:	4685                	c.li	a3,1
    800024e6:	00b56763          	bltu	a0,a1,800024f4 <memmove+0x14>
    800024ea:	56fd                	c.li	a3,-1
    800024ec:	fff60713          	addi	a4,a2,-1
    800024f0:	933a                	c.add	t1,a4
    800024f2:	95ba                	c.add	a1,a4
    800024f4:	00058383          	lb	t2,0(a1)
    800024f8:	00730023          	sb	t2,0(t1)
    800024fc:	167d                	c.addi	a2,-1
    800024fe:	9336                	c.add	t1,a3
    80002500:	95b6                	c.add	a1,a3
    80002502:	fa6d                	c.bnez	a2,800024f4 <memmove+0x14>
    80002504:	8082                	c.jr	ra

0000000080002506 <__malloc_lock>:
    80002506:	8082                	c.jr	ra

0000000080002508 <__malloc_unlock>:
    80002508:	8082                	c.jr	ra

000000008000250a <_realloc_r>:
    8000250a:	7179                	c.addi16sp	sp,-48
    8000250c:	f022                	c.sdsp	s0,32(sp)
    8000250e:	f406                	c.sdsp	ra,40(sp)
    80002510:	ec26                	c.sdsp	s1,24(sp)
    80002512:	e84a                	c.sdsp	s2,16(sp)
    80002514:	e44e                	c.sdsp	s3,8(sp)
    80002516:	8432                	c.mv	s0,a2
    80002518:	e991                	c.bnez	a1,8000252c <_realloc_r+0x22>
    8000251a:	7402                	c.ldsp	s0,32(sp)
    8000251c:	70a2                	c.ldsp	ra,40(sp)
    8000251e:	64e2                	c.ldsp	s1,24(sp)
    80002520:	6942                	c.ldsp	s2,16(sp)
    80002522:	69a2                	c.ldsp	s3,8(sp)
    80002524:	85b2                	c.mv	a1,a2
    80002526:	6145                	c.addi16sp	sp,48
    80002528:	e19fe06f          	jal	zero,80001340 <_malloc_r>
    8000252c:	ee01                	c.bnez	a2,80002544 <_realloc_r+0x3a>
    8000252e:	d6dfe0ef          	jal	ra,8000129a <_free_r>
    80002532:	4481                	c.li	s1,0
    80002534:	70a2                	c.ldsp	ra,40(sp)
    80002536:	7402                	c.ldsp	s0,32(sp)
    80002538:	6942                	c.ldsp	s2,16(sp)
    8000253a:	69a2                	c.ldsp	s3,8(sp)
    8000253c:	8526                	c.mv	a0,s1
    8000253e:	64e2                	c.ldsp	s1,24(sp)
    80002540:	6145                	c.addi16sp	sp,48
    80002542:	8082                	c.jr	ra
    80002544:	892e                	c.mv	s2,a1
    80002546:	89aa                	c.mv	s3,a0
    80002548:	152000ef          	jal	ra,8000269a <_malloc_usable_size_r>
    8000254c:	84ca                	c.mv	s1,s2
    8000254e:	fe8573e3          	bgeu	a0,s0,80002534 <_realloc_r+0x2a>
    80002552:	85a2                	c.mv	a1,s0
    80002554:	854e                	c.mv	a0,s3
    80002556:	debfe0ef          	jal	ra,80001340 <_malloc_r>
    8000255a:	84aa                	c.mv	s1,a0
    8000255c:	dd61                	c.beqz	a0,80002534 <_realloc_r+0x2a>
    8000255e:	85ca                	c.mv	a1,s2
    80002560:	8622                	c.mv	a2,s0
    80002562:	f69ff0ef          	jal	ra,800024ca <memcpy>
    80002566:	85ca                	c.mv	a1,s2
    80002568:	854e                	c.mv	a0,s3
    8000256a:	d31fe0ef          	jal	ra,8000129a <_free_r>
    8000256e:	b7d9                	c.j	80002534 <_realloc_r+0x2a>

0000000080002570 <_read_r>:
    80002570:	1141                	c.addi	sp,-16
    80002572:	e022                	c.sdsp	s0,0(sp)
    80002574:	842a                	c.mv	s0,a0
    80002576:	852e                	c.mv	a0,a1
    80002578:	85b2                	c.mv	a1,a2
    8000257a:	8636                	c.mv	a2,a3
    8000257c:	9e01ac23          	sw	zero,-1544(gp) # 80003038 <errno>
    80002580:	e406                	c.sdsp	ra,8(sp)
    80002582:	19e000ef          	jal	ra,80002720 <_read>
    80002586:	57fd                	c.li	a5,-1
    80002588:	00f51663          	bne	a0,a5,80002594 <_read_r+0x24>
    8000258c:	9f81a783          	lw	a5,-1544(gp) # 80003038 <errno>
    80002590:	c391                	c.beqz	a5,80002594 <_read_r+0x24>
    80002592:	c01c                	c.sw	a5,0(s0)
    80002594:	60a2                	c.ldsp	ra,8(sp)
    80002596:	6402                	c.ldsp	s0,0(sp)
    80002598:	0141                	c.addi	sp,16
    8000259a:	8082                	c.jr	ra

000000008000259c <cleanup_glue>:
    8000259c:	1101                	c.addi	sp,-32
    8000259e:	e822                	c.sdsp	s0,16(sp)
    800025a0:	842e                	c.mv	s0,a1
    800025a2:	618c                	c.ld	a1,0(a1)
    800025a4:	e426                	c.sdsp	s1,8(sp)
    800025a6:	ec06                	c.sdsp	ra,24(sp)
    800025a8:	84aa                	c.mv	s1,a0
    800025aa:	c199                	c.beqz	a1,800025b0 <cleanup_glue+0x14>
    800025ac:	ff1ff0ef          	jal	ra,8000259c <cleanup_glue>
    800025b0:	85a2                	c.mv	a1,s0
    800025b2:	6442                	c.ldsp	s0,16(sp)
    800025b4:	60e2                	c.ldsp	ra,24(sp)
    800025b6:	8526                	c.mv	a0,s1
    800025b8:	64a2                	c.ldsp	s1,8(sp)
    800025ba:	6105                	c.addi16sp	sp,32
    800025bc:	cdffe06f          	jal	zero,8000129a <_free_r>

00000000800025c0 <_reclaim_reent>:
    800025c0:	00001797          	auipc	a5,0x1
    800025c4:	8807b783          	ld	a5,-1920(a5) # 80002e40 <_impure_ptr>
    800025c8:	0ca78863          	beq	a5,a0,80002698 <_reclaim_reent+0xd8>
    800025cc:	613c                	c.ld	a5,64(a0)
    800025ce:	7179                	c.addi16sp	sp,-48
    800025d0:	f022                	c.sdsp	s0,32(sp)
    800025d2:	f406                	c.sdsp	ra,40(sp)
    800025d4:	ec26                	c.sdsp	s1,24(sp)
    800025d6:	e84a                	c.sdsp	s2,16(sp)
    800025d8:	e44e                	c.sdsp	s3,8(sp)
    800025da:	842a                	c.mv	s0,a0
    800025dc:	cb8d                	c.beqz	a5,8000260e <_reclaim_reent+0x4e>
    800025de:	6f9c                	c.ld	a5,24(a5)
    800025e0:	c38d                	c.beqz	a5,80002602 <_reclaim_reent+0x42>
    800025e2:	4481                	c.li	s1,0
    800025e4:	20000913          	addi	s2,zero,512
    800025e8:	603c                	c.ld	a5,64(s0)
    800025ea:	6f9c                	c.ld	a5,24(a5)
    800025ec:	97a6                	c.add	a5,s1
    800025ee:	638c                	c.ld	a1,0(a5)
    800025f0:	e5d1                	c.bnez	a1,8000267c <_reclaim_reent+0xbc>
    800025f2:	04a1                	c.addi	s1,8
    800025f4:	ff249ae3          	bne	s1,s2,800025e8 <_reclaim_reent+0x28>
    800025f8:	603c                	c.ld	a5,64(s0)
    800025fa:	8522                	c.mv	a0,s0
    800025fc:	6f8c                	c.ld	a1,24(a5)
    800025fe:	c9dfe0ef          	jal	ra,8000129a <_free_r>
    80002602:	603c                	c.ld	a5,64(s0)
    80002604:	638c                	c.ld	a1,0(a5)
    80002606:	c581                	c.beqz	a1,8000260e <_reclaim_reent+0x4e>
    80002608:	8522                	c.mv	a0,s0
    8000260a:	c91fe0ef          	jal	ra,8000129a <_free_r>
    8000260e:	740c                	c.ld	a1,40(s0)
    80002610:	c581                	c.beqz	a1,80002618 <_reclaim_reent+0x58>
    80002612:	8522                	c.mv	a0,s0
    80002614:	c87fe0ef          	jal	ra,8000129a <_free_r>
    80002618:	602c                	c.ld	a1,64(s0)
    8000261a:	c581                	c.beqz	a1,80002622 <_reclaim_reent+0x62>
    8000261c:	8522                	c.mv	a0,s0
    8000261e:	c7dfe0ef          	jal	ra,8000129a <_free_r>
    80002622:	702c                	c.ld	a1,96(s0)
    80002624:	c581                	c.beqz	a1,8000262c <_reclaim_reent+0x6c>
    80002626:	8522                	c.mv	a0,s0
    80002628:	c73fe0ef          	jal	ra,8000129a <_free_r>
    8000262c:	742c                	c.ld	a1,104(s0)
    8000262e:	c581                	c.beqz	a1,80002636 <_reclaim_reent+0x76>
    80002630:	8522                	c.mv	a0,s0
    80002632:	c69fe0ef          	jal	ra,8000129a <_free_r>
    80002636:	782c                	c.ld	a1,112(s0)
    80002638:	c581                	c.beqz	a1,80002640 <_reclaim_reent+0x80>
    8000263a:	8522                	c.mv	a0,s0
    8000263c:	c5ffe0ef          	jal	ra,8000129a <_free_r>
    80002640:	744c                	c.ld	a1,168(s0)
    80002642:	c581                	c.beqz	a1,8000264a <_reclaim_reent+0x8a>
    80002644:	8522                	c.mv	a0,s0
    80002646:	c55fe0ef          	jal	ra,8000129a <_free_r>
    8000264a:	704c                	c.ld	a1,160(s0)
    8000264c:	c581                	c.beqz	a1,80002654 <_reclaim_reent+0x94>
    8000264e:	8522                	c.mv	a0,s0
    80002650:	c4bfe0ef          	jal	ra,8000129a <_free_r>
    80002654:	6c2c                	c.ld	a1,88(s0)
    80002656:	c581                	c.beqz	a1,8000265e <_reclaim_reent+0x9e>
    80002658:	8522                	c.mv	a0,s0
    8000265a:	c41fe0ef          	jal	ra,8000129a <_free_r>
    8000265e:	581c                	c.lw	a5,48(s0)
    80002660:	c78d                	c.beqz	a5,8000268a <_reclaim_reent+0xca>
    80002662:	643c                	c.ld	a5,72(s0)
    80002664:	8522                	c.mv	a0,s0
    80002666:	9782                	c.jalr	a5
    80002668:	604c                	c.ld	a1,128(s0)
    8000266a:	c185                	c.beqz	a1,8000268a <_reclaim_reent+0xca>
    8000266c:	8522                	c.mv	a0,s0
    8000266e:	7402                	c.ldsp	s0,32(sp)
    80002670:	70a2                	c.ldsp	ra,40(sp)
    80002672:	64e2                	c.ldsp	s1,24(sp)
    80002674:	6942                	c.ldsp	s2,16(sp)
    80002676:	69a2                	c.ldsp	s3,8(sp)
    80002678:	6145                	c.addi16sp	sp,48
    8000267a:	b70d                	c.j	8000259c <cleanup_glue>
    8000267c:	0005b983          	ld	s3,0(a1)
    80002680:	8522                	c.mv	a0,s0
    80002682:	c19fe0ef          	jal	ra,8000129a <_free_r>
    80002686:	85ce                	c.mv	a1,s3
    80002688:	b7a5                	c.j	800025f0 <_reclaim_reent+0x30>
    8000268a:	70a2                	c.ldsp	ra,40(sp)
    8000268c:	7402                	c.ldsp	s0,32(sp)
    8000268e:	64e2                	c.ldsp	s1,24(sp)
    80002690:	6942                	c.ldsp	s2,16(sp)
    80002692:	69a2                	c.ldsp	s3,8(sp)
    80002694:	6145                	c.addi16sp	sp,48
    80002696:	8082                	c.jr	ra
    80002698:	8082                	c.jr	ra

000000008000269a <_malloc_usable_size_r>:
    8000269a:	ff85b703          	ld	a4,-8(a1)
    8000269e:	02071693          	slli	a3,a4,0x20
    800026a2:	0007079b          	addiw	a5,a4,0
    800026a6:	ff870513          	addi	a0,a4,-8 # ffffffff7ffffff8 <__heap_end+0xfffffffefffdbff8>
    800026aa:	0006d763          	bge	a3,zero,800026b8 <_malloc_usable_size_r+0x1e>
    800026ae:	95aa                	c.add	a1,a0
    800026b0:	618c                	c.ld	a1,0(a1)
    800026b2:	ff878513          	addi	a0,a5,-8
    800026b6:	952e                	c.add	a0,a1
    800026b8:	8082                	c.jr	ra

00000000800026ba <_close>:
    800026ba:	1141                	c.addi	sp,-16
    800026bc:	e406                	c.sdsp	ra,8(sp)
    800026be:	146000ef          	jal	ra,80002804 <__errno>
    800026c2:	60a2                	c.ldsp	ra,8(sp)
    800026c4:	47a5                	c.li	a5,9
    800026c6:	c11c                	c.sw	a5,0(a0)
    800026c8:	557d                	c.li	a0,-1
    800026ca:	0141                	c.addi	sp,16
    800026cc:	8082                	c.jr	ra

00000000800026ce <_exit>:
    800026ce:	0015179b          	slliw	a5,a0,0x1
    800026d2:	0017e793          	ori	a5,a5,1
    800026d6:	2781                	c.addiw	a5,0
    800026d8:	07c2                	c.slli	a5,0x10
    800026da:	83c1                	c.srli	a5,0x10
    800026dc:	00000717          	auipc	a4,0x0
    800026e0:	62470713          	addi	a4,a4,1572 # 80002d00 <tohost>
    800026e4:	00000697          	auipc	a3,0x0
    800026e8:	6206b223          	sd	zero,1572(a3) # 80002d08 <fromhost>
    800026ec:	e31c                	c.sd	a5,0(a4)
    800026ee:	bfdd                	c.j	800026e4 <_exit+0x16>

00000000800026f0 <_fstat>:
    800026f0:	1141                	c.addi	sp,-16
    800026f2:	e406                	c.sdsp	ra,8(sp)
    800026f4:	110000ef          	jal	ra,80002804 <__errno>
    800026f8:	60a2                	c.ldsp	ra,8(sp)
    800026fa:	47a5                	c.li	a5,9
    800026fc:	c11c                	c.sw	a5,0(a0)
    800026fe:	557d                	c.li	a0,-1
    80002700:	0141                	c.addi	sp,16
    80002702:	8082                	c.jr	ra

0000000080002704 <_isatty>:
    80002704:	357d                	c.addiw	a0,-1
    80002706:	00253513          	sltiu	a0,a0,2
    8000270a:	8082                	c.jr	ra

000000008000270c <_lseek>:
    8000270c:	1141                	c.addi	sp,-16
    8000270e:	e406                	c.sdsp	ra,8(sp)
    80002710:	0f4000ef          	jal	ra,80002804 <__errno>
    80002714:	60a2                	c.ldsp	ra,8(sp)
    80002716:	47a5                	c.li	a5,9
    80002718:	c11c                	c.sw	a5,0(a0)
    8000271a:	557d                	c.li	a0,-1
    8000271c:	0141                	c.addi	sp,16
    8000271e:	8082                	c.jr	ra

0000000080002720 <_read>:
    80002720:	1141                	c.addi	sp,-16
    80002722:	e406                	c.sdsp	ra,8(sp)
    80002724:	0e0000ef          	jal	ra,80002804 <__errno>
    80002728:	60a2                	c.ldsp	ra,8(sp)
    8000272a:	05800793          	addi	a5,zero,88
    8000272e:	c11c                	c.sw	a5,0(a0)
    80002730:	557d                	c.li	a0,-1
    80002732:	0141                	c.addi	sp,16
    80002734:	8082                	c.jr	ra

0000000080002736 <_sbrk>:
    80002736:	00000717          	auipc	a4,0x0
    8000273a:	71270713          	addi	a4,a4,1810 # 80002e48 <curbrk>
    8000273e:	631c                	c.ld	a5,0(a4)
    80002740:	a0018693          	addi	a3,gp,-1536 # 80003040 <_end>
    80002744:	953e                	c.add	a0,a5
    80002746:	00d56b63          	bltu	a0,a3,8000275c <_sbrk+0x26>
    8000274a:	00022697          	auipc	a3,0x22
    8000274e:	8b668693          	addi	a3,a3,-1866 # 80024000 <__heap_end>
    80002752:	00d57563          	bgeu	a0,a3,8000275c <_sbrk+0x26>
    80002756:	e308                	c.sd	a0,0(a4)
    80002758:	853e                	c.mv	a0,a5
    8000275a:	8082                	c.jr	ra
    8000275c:	1141                	c.addi	sp,-16
    8000275e:	e406                	c.sdsp	ra,8(sp)
    80002760:	0a4000ef          	jal	ra,80002804 <__errno>
    80002764:	60a2                	c.ldsp	ra,8(sp)
    80002766:	47b1                	c.li	a5,12
    80002768:	c11c                	c.sw	a5,0(a0)
    8000276a:	57fd                	c.li	a5,-1
    8000276c:	853e                	c.mv	a0,a5
    8000276e:	0141                	c.addi	sp,16
    80002770:	8082                	c.jr	ra

0000000080002772 <_write>:
    80002772:	04000693          	addi	a3,zero,64
    80002776:	a825                	c.j	800027ae <htif_syscall>

0000000080002778 <__init_tls>:
    80002778:	1141                	c.addi	sp,-16
    8000277a:	00000613          	addi	a2,zero,0
    8000277e:	00000597          	auipc	a1,0x0
    80002782:	29e58593          	addi	a1,a1,670 # 80002a1c <__tbss_end>
    80002786:	8512                	c.mv	a0,tp
    80002788:	e022                	c.sdsp	s0,0(sp)
    8000278a:	e406                	c.sdsp	ra,8(sp)
    8000278c:	8412                	c.mv	s0,tp
    8000278e:	d3dff0ef          	jal	ra,800024ca <memcpy>
    80002792:	00000513          	addi	a0,zero,0
    80002796:	9522                	c.add	a0,s0
    80002798:	6402                	c.ldsp	s0,0(sp)
    8000279a:	60a2                	c.ldsp	ra,8(sp)
    8000279c:	00000613          	addi	a2,zero,0
    800027a0:	4581                	c.li	a1,0
    800027a2:	0141                	c.addi	sp,16
    800027a4:	ae7fe06f          	jal	zero,8000128a <memset>

00000000800027a8 <__main>:
    800027a8:	10500073          	wfi
    800027ac:	bff5                	c.j	800027a8 <__main>

00000000800027ae <htif_syscall>:
    800027ae:	7139                	c.addi16sp	sp,-64
    800027b0:	e036                	c.sdsp	a3,0(sp)
    800027b2:	e42a                	c.sdsp	a0,8(sp)
    800027b4:	e82e                	c.sdsp	a1,16(sp)
    800027b6:	57fd                	c.li	a5,-1
    800027b8:	ec32                	c.sdsp	a2,24(sp)
    800027ba:	83c1                	c.srli	a5,0x10
    800027bc:	860a                	c.mv	a2,sp
    800027be:	8e7d                	c.and	a2,a5
    800027c0:	84018713          	addi	a4,gp,-1984 # 80002e80 <htif_lock>
    800027c4:	56fd                	c.li	a3,-1
    800027c6:	431c                	c.lw	a5,0(a4)
    800027c8:	2781                	c.addiw	a5,0
    800027ca:	fff5                	c.bnez	a5,800027c6 <htif_syscall+0x18>
    800027cc:	0cd727af          	amoswap.w.aq	a5,a3,(a4)
    800027d0:	fbfd                	c.bnez	a5,800027c6 <htif_syscall+0x18>
    800027d2:	0110000f          	fence	w,w
    800027d6:	00000697          	auipc	a3,0x0
    800027da:	52a68693          	addi	a3,a3,1322 # 80002d00 <tohost>
    800027de:	e290                	c.sd	a2,0(a3)
    800027e0:	669c                	c.ld	a5,8(a3)
    800027e2:	dffd                	c.beqz	a5,800027e0 <htif_syscall+0x32>
    800027e4:	00000797          	auipc	a5,0x0
    800027e8:	5207b223          	sd	zero,1316(a5) # 80002d08 <fromhost>
    800027ec:	0a07202f          	amoswap.w.rl	zero,zero,(a4)
    800027f0:	0220000f          	fence	r,r
    800027f4:	6502                	c.ldsp	a0,0(sp)
    800027f6:	6121                	c.addi16sp	sp,64
    800027f8:	8082                	c.jr	ra

00000000800027fa <atexit>:
    800027fa:	85aa                	c.mv	a1,a0
    800027fc:	4681                	c.li	a3,0
    800027fe:	4601                	c.li	a2,0
    80002800:	4501                	c.li	a0,0
    80002802:	a8e9                	c.j	800028dc <__register_exitproc>

0000000080002804 <__errno>:
    80002804:	00000517          	auipc	a0,0x0
    80002808:	63c53503          	ld	a0,1596(a0) # 80002e40 <_impure_ptr>
    8000280c:	8082                	c.jr	ra

000000008000280e <exit>:
    8000280e:	1141                	c.addi	sp,-16
    80002810:	e022                	c.sdsp	s0,0(sp)
    80002812:	e406                	c.sdsp	ra,8(sp)
    80002814:	00000797          	auipc	a5,0x0
    80002818:	14278793          	addi	a5,a5,322 # 80002956 <__call_exitprocs>
    8000281c:	842a                	c.mv	s0,a0
    8000281e:	c781                	c.beqz	a5,80002826 <exit+0x18>
    80002820:	4581                	c.li	a1,0
    80002822:	134000ef          	jal	ra,80002956 <__call_exitprocs>
    80002826:	00000517          	auipc	a0,0x0
    8000282a:	49253503          	ld	a0,1170(a0) # 80002cb8 <_global_impure_ptr>
    8000282e:	653c                	c.ld	a5,72(a0)
    80002830:	c391                	c.beqz	a5,80002834 <exit+0x26>
    80002832:	9782                	c.jalr	a5
    80002834:	8522                	c.mv	a0,s0
    80002836:	e99ff0ef          	jal	ra,800026ce <_exit>

000000008000283a <__libc_fini_array>:
    8000283a:	1101                	c.addi	sp,-32
    8000283c:	00000797          	auipc	a5,0x0
    80002840:	4ac78793          	addi	a5,a5,1196 # 80002ce8 <__fini_array_end>
    80002844:	e822                	c.sdsp	s0,16(sp)
    80002846:	00000417          	auipc	s0,0x0
    8000284a:	4a240413          	addi	s0,s0,1186 # 80002ce8 <__fini_array_end>
    8000284e:	8c1d                	c.sub	s0,a5
    80002850:	e426                	c.sdsp	s1,8(sp)
    80002852:	ec06                	c.sdsp	ra,24(sp)
    80002854:	840d                	c.srai	s0,0x3
    80002856:	84be                	c.mv	s1,a5
    80002858:	e411                	c.bnez	s0,80002864 <__libc_fini_array+0x2a>
    8000285a:	60e2                	c.ldsp	ra,24(sp)
    8000285c:	6442                	c.ldsp	s0,16(sp)
    8000285e:	64a2                	c.ldsp	s1,8(sp)
    80002860:	6105                	c.addi16sp	sp,32
    80002862:	8082                	c.jr	ra
    80002864:	147d                	c.addi	s0,-1
    80002866:	00341793          	slli	a5,s0,0x3
    8000286a:	97a6                	c.add	a5,s1
    8000286c:	639c                	c.ld	a5,0(a5)
    8000286e:	9782                	c.jalr	a5
    80002870:	b7e5                	c.j	80002858 <__libc_fini_array+0x1e>

0000000080002872 <__libc_init_array>:
    80002872:	1101                	c.addi	sp,-32
    80002874:	00000797          	auipc	a5,0x0
    80002878:	47478793          	addi	a5,a5,1140 # 80002ce8 <__fini_array_end>
    8000287c:	e822                	c.sdsp	s0,16(sp)
    8000287e:	00000417          	auipc	s0,0x0
    80002882:	46a40413          	addi	s0,s0,1130 # 80002ce8 <__fini_array_end>
    80002886:	8c1d                	c.sub	s0,a5
    80002888:	e426                	c.sdsp	s1,8(sp)
    8000288a:	e04a                	c.sdsp	s2,0(sp)
    8000288c:	ec06                	c.sdsp	ra,24(sp)
    8000288e:	840d                	c.srai	s0,0x3
    80002890:	4481                	c.li	s1,0
    80002892:	893e                	c.mv	s2,a5
    80002894:	02849663          	bne	s1,s0,800028c0 <__libc_init_array+0x4e>
    80002898:	00000797          	auipc	a5,0x0
    8000289c:	45078793          	addi	a5,a5,1104 # 80002ce8 <__fini_array_end>
    800028a0:	00000417          	auipc	s0,0x0
    800028a4:	44840413          	addi	s0,s0,1096 # 80002ce8 <__fini_array_end>
    800028a8:	8c1d                	c.sub	s0,a5
    800028aa:	840d                	c.srai	s0,0x3
    800028ac:	4481                	c.li	s1,0
    800028ae:	893e                	c.mv	s2,a5
    800028b0:	00849f63          	bne	s1,s0,800028ce <__libc_init_array+0x5c>
    800028b4:	60e2                	c.ldsp	ra,24(sp)
    800028b6:	6442                	c.ldsp	s0,16(sp)
    800028b8:	64a2                	c.ldsp	s1,8(sp)
    800028ba:	6902                	c.ldsp	s2,0(sp)
    800028bc:	6105                	c.addi16sp	sp,32
    800028be:	8082                	c.jr	ra
    800028c0:	00349793          	slli	a5,s1,0x3
    800028c4:	97ca                	c.add	a5,s2
    800028c6:	639c                	c.ld	a5,0(a5)
    800028c8:	0485                	c.addi	s1,1
    800028ca:	9782                	c.jalr	a5
    800028cc:	b7e1                	c.j	80002894 <__libc_init_array+0x22>
    800028ce:	00349793          	slli	a5,s1,0x3
    800028d2:	97ca                	c.add	a5,s2
    800028d4:	639c                	c.ld	a5,0(a5)
    800028d6:	0485                	c.addi	s1,1
    800028d8:	9782                	c.jalr	a5
    800028da:	bfd9                	c.j	800028b0 <__libc_init_array+0x3e>

00000000800028dc <__register_exitproc>:
    800028dc:	88aa                	c.mv	a7,a0
    800028de:	85018513          	addi	a0,gp,-1968 # 80002e90 <_global_atexit>
    800028e2:	611c                	c.ld	a5,0(a0)
    800028e4:	ef91                	c.bnez	a5,80002900 <__register_exitproc+0x24>
    800028e6:	8e018713          	addi	a4,gp,-1824 # 80002f20 <_global_atexit0>
    800028ea:	e118                	c.sd	a4,0(a0)
    800028ec:	00000537          	lui	a0,0x0
    800028f0:	00050513          	addi	a0,a0,0 # 0 <__boot_hart>
    800028f4:	87ba                	c.mv	a5,a4
    800028f6:	c509                	c.beqz	a0,80002900 <__register_exitproc+0x24>
    800028f8:	611c                	c.ld	a5,0(a0)
    800028fa:	10f73823          	sd	a5,272(a4)
    800028fe:	87ba                	c.mv	a5,a4
    80002900:	4798                	c.lw	a4,8(a5)
    80002902:	487d                	c.li	a6,31
    80002904:	557d                	c.li	a0,-1
    80002906:	04e84763          	blt	a6,a4,80002954 <__register_exitproc+0x78>
    8000290a:	02088d63          	beq	a7,zero,80002944 <__register_exitproc+0x68>
    8000290e:	1107b803          	ld	a6,272(a5)
    80002912:	04080163          	beq	a6,zero,80002954 <__register_exitproc+0x78>
    80002916:	00371513          	slli	a0,a4,0x3
    8000291a:	9542                	c.add	a0,a6
    8000291c:	e110                	c.sd	a2,0(a0)
    8000291e:	20082303          	lw	t1,512(a6)
    80002922:	4605                	c.li	a2,1
    80002924:	00e6163b          	sllw	a2,a2,a4
    80002928:	00c36333          	or	t1,t1,a2
    8000292c:	20682023          	sw	t1,512(a6)
    80002930:	10d53023          	sd	a3,256(a0)
    80002934:	4689                	c.li	a3,2
    80002936:	00d89763          	bne	a7,a3,80002944 <__register_exitproc+0x68>
    8000293a:	20482683          	lw	a3,516(a6)
    8000293e:	8e55                	c.or	a2,a3
    80002940:	20c82223          	sw	a2,516(a6)
    80002944:	0017069b          	addiw	a3,a4,1
    80002948:	0709                	c.addi	a4,2
    8000294a:	070e                	c.slli	a4,0x3
    8000294c:	c794                	c.sw	a3,8(a5)
    8000294e:	97ba                	c.add	a5,a4
    80002950:	e38c                	c.sd	a1,0(a5)
    80002952:	4501                	c.li	a0,0
    80002954:	8082                	c.jr	ra

0000000080002956 <__call_exitprocs>:
    80002956:	715d                	c.addi16sp	sp,-80
    80002958:	f44e                	c.sdsp	s3,40(sp)
    8000295a:	f052                	c.sdsp	s4,32(sp)
    8000295c:	ec56                	c.sdsp	s5,24(sp)
    8000295e:	e85a                	c.sdsp	s6,16(sp)
    80002960:	e486                	c.sdsp	ra,72(sp)
    80002962:	e0a2                	c.sdsp	s0,64(sp)
    80002964:	fc26                	c.sdsp	s1,56(sp)
    80002966:	f84a                	c.sdsp	s2,48(sp)
    80002968:	e45e                	c.sdsp	s7,8(sp)
    8000296a:	8a2a                	c.mv	s4,a0
    8000296c:	89ae                	c.mv	s3,a1
    8000296e:	85018a93          	addi	s5,gp,-1968 # 80002e90 <_global_atexit>
    80002972:	4b05                	c.li	s6,1
    80002974:	000ab403          	ld	s0,0(s5)
    80002978:	c819                	c.beqz	s0,8000298e <__call_exitprocs+0x38>
    8000297a:	4404                	c.lw	s1,8(s0)
    8000297c:	11043903          	ld	s2,272(s0)
    80002980:	34fd                	c.addiw	s1,-1
    80002982:	02049713          	slli	a4,s1,0x20
    80002986:	0004879b          	addiw	a5,s1,0
    8000298a:	00075d63          	bge	a4,zero,800029a4 <__call_exitprocs+0x4e>
    8000298e:	60a6                	c.ldsp	ra,72(sp)
    80002990:	6406                	c.ldsp	s0,64(sp)
    80002992:	74e2                	c.ldsp	s1,56(sp)
    80002994:	7942                	c.ldsp	s2,48(sp)
    80002996:	79a2                	c.ldsp	s3,40(sp)
    80002998:	7a02                	c.ldsp	s4,32(sp)
    8000299a:	6ae2                	c.ldsp	s5,24(sp)
    8000299c:	6b42                	c.ldsp	s6,16(sp)
    8000299e:	6ba2                	c.ldsp	s7,8(sp)
    800029a0:	6161                	c.addi16sp	sp,80
    800029a2:	8082                	c.jr	ra
    800029a4:	00098d63          	beq	s3,zero,800029be <__call_exitprocs+0x68>
    800029a8:	00091463          	bne	s2,zero,800029b0 <__call_exitprocs+0x5a>
    800029ac:	14fd                	c.addi	s1,-1
    800029ae:	bfd1                	c.j	80002982 <__call_exitprocs+0x2c>
    800029b0:	00349713          	slli	a4,s1,0x3
    800029b4:	974a                	c.add	a4,s2
    800029b6:	10073703          	ld	a4,256(a4)
    800029ba:	ff3719e3          	bne	a4,s3,800029ac <__call_exitprocs+0x56>
    800029be:	4418                	c.lw	a4,8(s0)
    800029c0:	00349613          	slli	a2,s1,0x3
    800029c4:	00c405b3          	add	a1,s0,a2
    800029c8:	377d                	c.addiw	a4,-1
    800029ca:	6994                	c.ld	a3,16(a1)
    800029cc:	02f71863          	bne	a4,a5,800029fc <__call_exitprocs+0xa6>
    800029d0:	c41c                	c.sw	a5,8(s0)
    800029d2:	dee9                	c.beqz	a3,800029ac <__call_exitprocs+0x56>
    800029d4:	00842b83          	lw	s7,8(s0)
    800029d8:	00090963          	beq	s2,zero,800029ea <__call_exitprocs+0x94>
    800029dc:	20092703          	lw	a4,512(s2)
    800029e0:	00fb17bb          	sllw	a5,s6,a5
    800029e4:	8f7d                	c.and	a4,a5
    800029e6:	2701                	c.addiw	a4,0
    800029e8:	ef09                	c.bnez	a4,80002a02 <__call_exitprocs+0xac>
    800029ea:	9682                	c.jalr	a3
    800029ec:	4418                	c.lw	a4,8(s0)
    800029ee:	000ab783          	ld	a5,0(s5)
    800029f2:	f97711e3          	bne	a4,s7,80002974 <__call_exitprocs+0x1e>
    800029f6:	faf40be3          	beq	s0,a5,800029ac <__call_exitprocs+0x56>
    800029fa:	bfad                	c.j	80002974 <__call_exitprocs+0x1e>
    800029fc:	0005b823          	sd	zero,16(a1)
    80002a00:	bfc9                	c.j	800029d2 <__call_exitprocs+0x7c>
    80002a02:	20492703          	lw	a4,516(s2)
    80002a06:	964a                	c.add	a2,s2
    80002a08:	620c                	c.ld	a1,0(a2)
    80002a0a:	8ff9                	c.and	a5,a4
    80002a0c:	2781                	c.addiw	a5,0
    80002a0e:	e781                	c.bnez	a5,80002a16 <__call_exitprocs+0xc0>
    80002a10:	8552                	c.mv	a0,s4
    80002a12:	9682                	c.jalr	a3
    80002a14:	bfe1                	c.j	800029ec <__call_exitprocs+0x96>
    80002a16:	852e                	c.mv	a0,a1
    80002a18:	9682                	c.jalr	a3
    80002a1a:	bfc9                	c.j	800029ec <__call_exitprocs+0x96>
